(dp0
cnumpy.core.multiarray
scalar
p1
(cnumpy
dtype
p2
(S'S4'
p3
I0
I1
tp4
Rp5
(I3
S'|'
p6
NNNI4
I1
I0
tp7
bS'06jc'
p8
tp9
Rp10
g1
(g2
(S'S7'
p11
I0
I1
tp12
Rp13
(I3
S'|'
p14
NNNI7
I1
I0
tp15
bS'#cc0c0c'
p16
tp17
Rp18
sg1
(g2
(S'S8'
p19
I0
I1
tp20
Rp21
(I3
S'|'
p22
NNNI8
I1
I0
tp23
bS'PS1-12sk'
p24
tp25
Rp26
g1
(g2
(S'S7'
p27
I0
I1
tp28
Rp29
(I3
S'|'
p30
NNNI7
I1
I0
tp31
bS'#2e0035'
p32
tp33
Rp34
sg1
(g2
(S'S8'
p35
I0
I1
tp36
Rp37
(I3
S'|'
p38
NNNI8
I1
I0
tp39
bS'PTF12gzk'
p40
tp41
Rp42
g1
(g2
(S'S7'
p43
I0
I1
tp44
Rp45
(I3
S'|'
p46
NNNI7
I1
I0
tp47
bS'#2200a5'
p48
tp49
Rp50
sg1
(g2
(S'S4'
p51
I0
I1
tp52
Rp53
(I3
S'|'
p54
NNNI4
I1
I0
tp55
bS'11ei'
p56
tp57
Rp58
g1
(g2
(S'S7'
p59
I0
I1
tp60
Rp61
(I3
S'|'
p62
NNNI7
I1
I0
tp63
bS'#d3f600'
p64
tp65
Rp66
sg1
(g2
(S'S4'
p67
I0
I1
tp68
Rp69
(I3
S'|'
p70
NNNI4
I1
I0
tp71
bS'07bg'
p72
tp73
Rp74
g1
(g2
(S'S7'
p75
I0
I1
tp76
Rp77
(I3
S'|'
p78
NNNI7
I1
I0
tp79
bS'#70007f'
p80
tp81
Rp82
sg1
(g2
(S'S4'
p83
I0
I1
tp84
Rp85
(I3
S'|'
p86
NNNI4
I1
I0
tp87
bS'11dh'
p88
tp89
Rp90
g1
(g2
(S'S7'
p91
I0
I1
tp92
Rp93
(I3
S'|'
p94
NNNI7
I1
I0
tp95
bS'#00a100'
p96
tp97
Rp98
sg1
(g2
(S'S5'
p99
I0
I1
tp100
Rp101
(I3
S'|'
p102
NNNI5
I1
I0
tp103
bS'16gkg'
p104
tp105
Rp106
g1
(g2
(S'S7'
p107
I0
I1
tp108
Rp109
(I3
S'|'
p110
NNNI7
I1
I0
tp111
bS'#ff8100'
p112
tp113
Rp114
sg1
(g2
(S'S4'
p115
I0
I1
tp116
Rp117
(I3
S'|'
p118
NNNI4
I1
I0
tp119
bS'13ak'
p120
tp121
Rp122
g1
(g2
(S'S7'
p123
I0
I1
tp124
Rp125
(I3
S'|'
p126
NNNI7
I1
I0
tp127
bS'#f3e100'
p128
tp129
Rp130
sg1
(g2
(S'S4'
p131
I0
I1
tp132
Rp133
(I3
S'|'
p134
NNNI4
I1
I0
tp135
bS'13df'
p136
tp137
Rp138
g1
(g2
(S'S7'
p139
I0
I1
tp140
Rp141
(I3
S'|'
p142
NNNI7
I1
I0
tp143
bS'#00c600'
p144
tp145
Rp146
sg1
(g2
(S'S4'
p147
I0
I1
tp148
Rp149
(I3
S'|'
p150
NNNI4
I1
I0
tp151
bS'07uy'
p152
tp153
Rp154
g1
(g2
(S'S7'
p155
I0
I1
tp156
Rp157
(I3
S'|'
p158
NNNI7
I1
I0
tp159
bS'#0000ad'
p160
tp161
Rp162
sg1
(g2
(S'S4'
p163
I0
I1
tp164
Rp165
(I3
S'|'
p166
NNNI4
I1
I0
tp167
bS'08ax'
p168
tp169
Rp170
g1
(g2
(S'S7'
p171
I0
I1
tp172
Rp173
(I3
S'|'
p174
NNNI7
I1
I0
tp175
bS'#00e400'
p176
tp177
Rp178
sg1
(g2
(S'S4'
p179
I0
I1
tp180
Rp181
(I3
S'|'
p182
NNNI4
I1
I0
tp183
bS'11hw'
p184
tp185
Rp186
g1
(g2
(S'S7'
p187
I0
I1
tp188
Rp189
(I3
S'|'
p190
NNNI7
I1
I0
tp191
bS'#00a0c7'
p192
tp193
Rp194
sg1
(g2
(S'S3'
p195
I0
I1
tp196
Rp197
(I3
S'|'
p198
NNNI3
I1
I0
tp199
bS'07Y'
p200
tp201
Rp202
g1
(g2
(S'S7'
p203
I0
I1
tp204
Rp205
(I3
S'|'
p206
NNNI7
I1
I0
tp207
bS'#00a45d'
p208
tp209
Rp210
sg1
(g2
(S'S9'
p211
I0
I1
tp212
Rp213
(I3
S'|'
p214
NNNI9
I1
I0
tp215
bS'iPTF13bvn'
p216
tp217
Rp218
g1
(g2
(S'S7'
p219
I0
I1
tp220
Rp221
(I3
S'|'
p222
NNNI7
I1
I0
tp223
bS'#62009d'
p224
tp225
Rp226
sg1
(g2
(S'S4'
p227
I0
I1
tp228
Rp229
(I3
S'|'
p230
NNNI4
I1
I0
tp231
bS'11hs'
p232
tp233
Rp234
g1
(g2
(S'S7'
p235
I0
I1
tp236
Rp237
(I3
S'|'
p238
NNNI7
I1
I0
tp239
bS'#870098'
p240
tp241
Rp242
sg1
(g2
(S'S4'
p243
I0
I1
tp244
Rp245
(I3
S'|'
p246
NNNI4
I1
I0
tp247
bS'10jr'
p248
tp249
Rp250
g1
(g2
(S'S7'
p251
I0
I1
tp252
Rp253
(I3
S'|'
p254
NNNI7
I1
I0
tp255
bS'#ff2000'
p256
tp257
Rp258
s.