(isnclasses
mysn
p0
(dp1
S'camsystem'
p2
S''
p3
sS'dVmax'
p4
F1.5
sS'nomaxdate'
p5
I00
sS'maxcolors'
p6
(dp7
S'V-K'
p8
(dp9
S'color'
p10
Fnan
sS'epoch'
p11
F0.0
sS'dcolor'
p12
Fnan
ssS'V-H'
p13
(dp14
g10
Fnan
sg11
F0.0
sg12
Fnan
ssS'V-I'
p15
(dp16
g10
Fnan
sg11
F0.0
sg12
Fnan
ssS'R-I'
p17
(dp18
g10
Fnan
sg11
F0.0
sg12
Fnan
ssS'V-R'
p19
(dp20
g10
Fnan
sg11
F0.0
sg12
Fnan
ssS'V-i'
p21
(dp22
g10
Fnan
sg11
F0.0
sg12
Fnan
ssS'V-r'
p23
(dp24
g10
Fnan
sg11
F0.0
sg12
Fnan
ssS'B-J'
p25
(dp26
g10
Fnan
sg11
F0.0
sg12
Fnan
ssS'B-K'
p27
(dp28
g10
Fnan
sg11
F0.0
sg12
Fnan
ssS'B-H'
p29
(dp30
g10
Fnan
sg11
F0.0
sg12
Fnan
ssS'B-I'
p31
(dp32
g10
Fnan
sg11
F0.0
sg12
Fnan
ssS'B-R'
p33
(dp34
g10
Fnan
sg11
F0.0
sg12
Fnan
ssS'J-K'
p35
(dp36
g10
Fnan
sg11
F0.0
sg12
Fnan
ssS'B-V'
p37
(dp38
g10
Fnan
sg11
F0.0
sg12
Fnan
ssS'H-J'
p39
(dp40
g10
Fnan
sg11
F0.0
sg12
Fnan
ssS'H-K'
p41
(dp42
g10
Fnan
sg11
F0.0
sg12
Fnan
ssS'r-i'
p43
(dp44
g10
Fnan
sg11
F0.0
sg12
Fnan
ssS'I-H'
p45
(dp46
g10
Fnan
sg11
F0.0
sg12
Fnan
ssS'B-i'
p47
(dp48
g10
Fnan
sg11
F0.0
sg12
Fnan
ssS'B-r'
p49
(dp50
g10
Fnan
sg11
F0.0
sg12
Fnan
ssS'U-B'
p51
(dp52
g10
Fnan
sg11
F0.0
sg12
Fnan
ssS'r-K'
p53
(dp54
g10
Fnan
sg11
F0.0
sg12
Fnan
sssS'colors'
p55
(dp56
g8
(dp57
S'mjd'
p58
(lp59
sS'dmag'
p60
(lp61
sS'mag'
p62
(lp63
ssg13
(dp64
g58
(lp65
sg60
(lp66
sg62
(lp67
ssg15
(dp68
g58
(lp69
sg60
(lp70
sg62
(lp71
ssg17
(dp72
g58
(lp73
sg60
(lp74
sg62
(lp75
ssg19
(dp76
g58
(lp77
sg60
(lp78
sg62
(lp79
ssg21
(dp80
g58
(lp81
sg60
(lp82
sg62
(lp83
ssg23
(dp84
g58
(lp85
sg60
(lp86
sg62
(lp87
ssg25
(dp88
g58
(lp89
sg60
(lp90
sg62
(lp91
ssg27
(dp92
g58
(lp93
sg60
(lp94
sg62
(lp95
ssg29
(dp96
g58
(lp97
sg60
(lp98
sg62
(lp99
ssg31
(dp100
g58
(lp101
sg60
(lp102
sg62
(lp103
ssg33
(dp104
g58
(lp105
sg60
(lp106
sg62
(lp107
ssg35
(dp108
g58
(lp109
sg60
(lp110
sg62
(lp111
ssg37
(dp112
g58
(lp113
sg60
(lp114
sg62
(lp115
ssg39
(dp116
g58
(lp117
sg60
(lp118
sg62
(lp119
ssg41
(dp120
g58
(lp121
sg60
(lp122
sg62
(lp123
ssg43
(dp124
g58
(lp125
sg60
(lp126
sg62
(lp127
ssg45
(dp128
g58
(lp129
sg60
(lp130
sg62
(lp131
ssg47
(dp132
g58
(lp133
sg60
(lp134
sg62
(lp135
ssg49
(dp136
g58
(lp137
sg60
(lp138
sg62
(lp139
ssg51
(dp140
g58
(lp141
sg60
(lp142
sg62
(lp143
ssg53
(dp144
g58
(lp145
sg60
(lp146
sg62
(lp147
sssS'filters'
p148
(dp149
S'B'
p150
I0
sS'I'
p151
I0
sS'H'
p152
I0
sS'K'
p153
I0
sS'J'
p154
I0
sS'i'
p155
I0
sS'R'
p156
I0
sS'u'
p157
I0
sS'V'
p158
I0
sS'U'
p159
I0
sS'r'
p160
I0
ssS'snnameshort'
p161
S'06F'
p162
sS'templsol'
p163
(dp164
g150
Nsg151
Nsg152
Nsg153
Nsg154
Nsg155
Nsg156
Nsg157
Nsg158
Nsg159
Nsg160
NssS'Vmaxmag'
p165
F0.0
sS'Vmaxflag'
p166
I00
sS'stats'
p167
(dp168
g150
(isnclasses
snstats
p169
(dp170
S'polyrchisq'
p171
F0.0
sS'Rdm15'
p172
F0.0
sS'tlim'
p173
(lp174
F0.0
aF0.0
asS'maglim'
p175
(lp176
F0.0
aF0.0
asS'templresid'
p177
NsS'polyresid'
p178
NsS'dm15'
p179
F0.0
sS'polydeg'
p180
F0.0
sS'success'
p181
I0
sS'flagmiss15'
p182
I0
sS'flagmissmax'
p183
I0
sS'm15data'
p184
(lp185
F0.0
aF0.0
asS'band'
p186
g3
sS'templrchisq'
p187
F0.0
sS'flagbadfit'
p188
I0
sS'Rdm15lin'
p189
(lp190
F0.0
aF0.0
asS'templatefit'
p191
(dp192
S'stretch'
p193
F1.0
sS'yoffset'
p194
F0.0
sS'xoffset'
p195
F0.0
sS'xstretch'
p196
F1.0
ssS'dm15lin'
p197
(lp198
F0.0
aF0.0
asS'maxjd'
p199
(lp200
F0.0
aF0.0
asS'norm'
p201
F0.0
sg193
F0.0
sbsg151
(isnclasses
snstats
p202
(dp203
g171
F0.0
sg172
F0.0
sg173
(lp204
F0.0
aF0.0
asg175
(lp205
F0.0
aF0.0
asg177
Nsg178
Nsg179
F0.0
sg180
F0.0
sg181
I0
sg182
I0
sg183
I0
sg184
(lp206
F0.0
aF0.0
asg186
g3
sg187
F0.0
sg188
I0
sg189
(lp207
F0.0
aF0.0
asg191
(dp208
g193
F1.0
sg194
F0.0
sg195
F0.0
sg196
F1.0
ssg197
(lp209
F0.0
aF0.0
asg199
(lp210
F0.0
aF0.0
asg201
F0.0
sg193
F0.0
sbsg152
(isnclasses
snstats
p211
(dp212
g171
F0.0
sg172
F0.0
sg173
(lp213
F0.0
aF0.0
asg175
(lp214
F0.0
aF0.0
asg177
Nsg178
Nsg179
F0.0
sg180
F0.0
sg181
I0
sg182
I0
sg183
I0
sg184
(lp215
F0.0
aF0.0
asg186
g3
sg187
F0.0
sg188
I0
sg189
(lp216
F0.0
aF0.0
asg191
(dp217
g193
F1.0
sg194
F0.0
sg195
F0.0
sg196
F1.0
ssg197
(lp218
F0.0
aF0.0
asg199
(lp219
F0.0
aF0.0
asg201
F0.0
sg193
F0.0
sbsg153
(isnclasses
snstats
p220
(dp221
g171
F0.0
sg172
F0.0
sg173
(lp222
F0.0
aF0.0
asg175
(lp223
F0.0
aF0.0
asg177
Nsg178
Nsg179
F0.0
sg180
F0.0
sg181
I0
sg182
I0
sg183
I0
sg184
(lp224
F0.0
aF0.0
asg186
g3
sg187
F0.0
sg188
I0
sg189
(lp225
F0.0
aF0.0
asg191
(dp226
g193
F1.0
sg194
F0.0
sg195
F0.0
sg196
F1.0
ssg197
(lp227
F0.0
aF0.0
asg199
(lp228
F0.0
aF0.0
asg201
F0.0
sg193
F0.0
sbsg154
(isnclasses
snstats
p229
(dp230
g171
F0.0
sg172
F0.0
sg173
(lp231
F0.0
aF0.0
asg175
(lp232
F0.0
aF0.0
asg177
Nsg178
Nsg179
F0.0
sg180
F0.0
sg181
I0
sg182
I0
sg183
I0
sg184
(lp233
F0.0
aF0.0
asg186
g3
sg187
F0.0
sg188
I0
sg189
(lp234
F0.0
aF0.0
asg191
(dp235
g193
F1.0
sg194
F0.0
sg195
F0.0
sg196
F1.0
ssg197
(lp236
F0.0
aF0.0
asg199
(lp237
F0.0
aF0.0
asg201
F0.0
sg193
F0.0
sbsg155
(isnclasses
snstats
p238
(dp239
g171
F0.0
sg172
F0.0
sg173
(lp240
F0.0
aF0.0
asg175
(lp241
F0.0
aF0.0
asg177
Nsg178
Nsg179
F0.0
sg180
F0.0
sg181
I0
sg182
I0
sg183
I0
sg184
(lp242
F0.0
aF0.0
asg186
g3
sg187
F0.0
sg188
I0
sg189
(lp243
F0.0
aF0.0
asg191
(dp244
g193
F1.0
sg194
F0.0
sg195
F0.0
sg196
F1.0
ssg197
(lp245
F0.0
aF0.0
asg199
(lp246
F0.0
aF0.0
asg201
F0.0
sg193
F0.0
sbsg156
(isnclasses
snstats
p247
(dp248
g171
F0.0
sg172
F0.0
sg173
(lp249
F0.0
aF0.0
asg175
(lp250
F0.0
aF0.0
asg177
Nsg178
Nsg179
F0.0
sg180
F0.0
sg181
I0
sg182
I0
sg183
I0
sg184
(lp251
F0.0
aF0.0
asg186
g3
sg187
F0.0
sg188
I0
sg189
(lp252
F0.0
aF0.0
asg191
(dp253
g193
F1.0
sg194
F0.0
sg195
F0.0
sg196
F1.0
ssg197
(lp254
F0.0
aF0.0
asg199
(lp255
F0.0
aF0.0
asg201
F0.0
sg193
F0.0
sbsg157
(isnclasses
snstats
p256
(dp257
g171
F0.0
sg172
F0.0
sg173
(lp258
F0.0
aF0.0
asg175
(lp259
F0.0
aF0.0
asg177
Nsg178
Nsg179
F0.0
sg180
F0.0
sg181
I0
sg182
I0
sg183
I0
sg184
(lp260
F0.0
aF0.0
asg186
g3
sg187
F0.0
sg188
I0
sg189
(lp261
F0.0
aF0.0
asg191
(dp262
g193
F1.0
sg194
F0.0
sg195
F0.0
sg196
F1.0
ssg197
(lp263
F0.0
aF0.0
asg199
(lp264
F0.0
aF0.0
asg201
F0.0
sg193
F0.0
sbsg158
(isnclasses
snstats
p265
(dp266
g171
F0.0
sg172
F0.0
sg173
(lp267
F0.0
aF0.0
asg175
(lp268
F0.0
aF0.0
asg177
Nsg178
Nsg179
F0.0
sg180
F0.0
sg181
I0
sg182
I0
sg183
I0
sg184
(lp269
F0.0
aF0.0
asg186
g3
sg187
F0.0
sg188
I0
sg189
(lp270
F0.0
aF0.0
asg191
(dp271
g193
F1.0
sg194
F0.0
sg195
F0.0
sg196
F1.0
ssg197
(lp272
F0.0
aF0.0
asg199
(lp273
F0.0
aF0.0
asg201
F0.0
sg193
F0.0
sbsg159
(isnclasses
snstats
p274
(dp275
g171
F0.0
sg172
F0.0
sg173
(lp276
F0.0
aF0.0
asg175
(lp277
F0.0
aF0.0
asg177
Nsg178
Nsg179
F0.0
sg180
F0.0
sg181
I0
sg182
I0
sg183
I0
sg184
(lp278
F0.0
aF0.0
asg186
g3
sg187
F0.0
sg188
I0
sg189
(lp279
F0.0
aF0.0
asg191
(dp280
g193
F1.0
sg194
F0.0
sg195
F0.0
sg196
F1.0
ssg197
(lp281
F0.0
aF0.0
asg199
(lp282
F0.0
aF0.0
asg201
F0.0
sg193
F0.0
sbsg160
(isnclasses
snstats
p283
(dp284
g171
F0.0
sg172
F0.0
sg173
(lp285
F0.0
aF0.0
asg175
(lp286
F0.0
aF0.0
asg177
Nsg178
Nsg179
F0.0
sg180
F0.0
sg181
I0
sg182
I0
sg183
I0
sg184
(lp287
F0.0
aF0.0
asg186
g3
sg187
F0.0
sg188
I0
sg189
(lp288
F0.0
aF0.0
asg191
(dp289
g193
F1.0
sg194
F0.0
sg195
F0.0
sg196
F1.0
ssg197
(lp290
F0.0
aF0.0
asg199
(lp291
F0.0
aF0.0
asg201
F0.0
sg193
F0.0
sbssS'lc'
p292
cnumpy.core.multiarray
_reconstruct
p293
(cnumpy
ndarray
p294
(I0
tp295
S'b'
p296
tp297
Rp298
(I1
(I39
tp299
cnumpy
dtype
p300
(S'V18'
p301
I0
I1
tp302
Rp303
(I3
S'|'
p304
N(S'photcode'
p305
S'mjd'
p306
S'mag'
p307
S'dmag'
p308
S'ccmag'
p309
tp310
(dp311
g306
(g300
(S'f4'
p312
I0
I1
tp313
Rp314
(I3
S'<'
p315
NNNI-1
I-1
I0
tp316
bI2
tp317
sg309
(g314
I14
tp318
sg307
(g314
I6
tp319
sg305
(g300
(S'S2'
p320
I0
I1
tp321
Rp322
(I3
S'|'
p323
NNNI2
I1
I0
tp324
bI0
tp325
sg308
(g314
I10
tp326
sI18
I1
I16
tp327
bI00
S'01(\xfaQG\x9e\xef\x9eA\xb0rh>sh\x9fA01%\xffQG\xd5x\xa3A\xfc\xa9\xb1>}?\xa4A01\x1c\x02RG\xc1\xca\xa3AT\xe3\xa5>\x08\xac\xa4A017\x06RG33\xa6A#\xdb\xf9>\xdb\xf9\xa6A02"\xfaQGZd\x99A\xc1\xca\xa1=\x0c\x02\x9aA02$\xffQGH\xe1\x9fA`\xe5\xd0=\x83\xc0\xa0A02*\x05RG-\xb2\xa3A\xc3\xf5(>\\\x8f\xa4A026\x06RG\xc9v\xa3A\x02+\x07>\xa2E\xa4A02&\x11RGb\x10\xa4A\xd5x\xe9>sh\xa4A02 \x14RGb\x10\xa8Ay\xe9\xa6>^\xba\xa8A039\xf8QGL7\x90A\n\xd7#=J\x0c\x90A03 \xfaQGF\xb6\x8fA\xc5 0=7\x89\x8fA03\'\xfaQG\xbaI\x90A\n\xd7#=\xac\x1c\x90A03"\xffQG\\\x8f\x92A)\\\x0f=\xdfO\x92A03\x19\x02RG\xd5x\x94A\n\xd7#=L7\x94A03)\x05RG7\x89\x96A\xcd\xccL=\xc7K\x96A034\x06RG1\x08\x97A\x1b/]=\xcd\xcc\x96A03$\x11RG\xa4p\x9eA\x06\x81\x15>\xbaI\x9eA03\'\x13RG33\x9eA\xa2E6>=\n\x9eA03$\x1aRG\x7fj\x9fA\xee|?>}?\x9fA13:\xf8QG\xa2E\x8cA\xf4\xfd\xd4<\xaeG\x8cA13#\xffQGZd\x8eAB`\xe5<\xf8S\x8eA13\x19\x02RG#\xdb\x8fA\x02+\x07=\xd9\xce\x8fA13*\x05RG\xcf\xf7\x91A\x96C\x0b=\x91\xed\x91A135\x06RG\x89A\x92Ah\x91\xed<d;\x92A13#\x11RG;\xdf\x97A\x96C\x8b=\x19\x04\x98A13&\x13RG?5\x99AR\xb8\x1e>\xaeG\x99A13"\x19RGy\xe9\x97A\xaa\xf1\x92>\x87\x16\x98A13#\x1aRG\x9e\xef\x99A^\xba\x89>%\x06\x9aA14:\xf8QG`\xe5\x8bA\xb6\xf3\xfd<\xc1\xca\x8bA14#\xffQG\xcf\xf7\x8cAB`\xe5<\xcd\xcc\x8cA14\x1a\x02RGj\xbc\x8dA\x96C\x0b=\x81\x95\x8dA14*\x05RG\x9a\x99\x8fA\xbct\x13=\xc9v\x8fA145\x06RG\xfc\xa9\x8fA\xb6\xf3\xfd<D\x8b\x8fA14#\x11RG\x9c\xc4\x95A\x08\xac\x1c>\x8f\xc2\x95A14&\x13RG\x1f\x85\x96A\xbe\x9f\x1a>\xee|\x96A14\x1c\x14RG\xbct\x97A\xecQ8>sh\x97A14"\x19RG33\x97A\xa2E6>\x02+\x97A14$\x1aRG-\xb2\x98A\x0c\x02+>\xd7\xa3\x98A'
p328
tp329
bsS'Rmax'
p330
(dp331
sS'polyfit'
p332
NsS'ebmvtot'
p333
F0.0
sS'Vmax'
p334
F2453753.9
sS'type'
p335
S'Ib'
p336
sS'metadata'
p337
(dp338
g3
S'?'
p339
sS'cfaUmaxerr'
p340
S'-'
p341
sS'v2 Fe II 5169 date'
p342
g341
sS'D11Rmax'
p343
g3
sS'v_z'
p344
S'4142'
p345
sS'E(b-v)hosterr'
p346
S'--'
p347
sS'v1 Fe II 5018 date'
p348
g341
sS'cfaRmaxerr'
p349
g341
sS'CfA RJD bootstrap'
p350
S'<0000000'
p351
sS'inclination from axes sdss'
p352
S'--'
p353
sS'my E(B-V)host from inclination'
p354
g341
sS'RA'
p355
S'2:28:11'
p356
sS'cfaVmaxerr'
p357
g341
sS'Dm15 (with Lyman BC correction)'
p358
g3
sS'CfA E(B-V)host'
p359
S'0.539'
p360
sS'lcvquality'
p361
S'2'
p362
sS'v1 Fe II 5169 '
p363
g341
sS'decdeg'
p364
S'19.6036111111'
p365
sS'cfaVmax'
p366
g341
sS'CfA VJD bootstrap error'
p367
S'--'
p368
sS'MaxVJD'
p369
S'2453753.9'
p370
sS'D11Vmaxdate'
p371
g3
sS'v1 Fe II 5018 '
p372
g341
sS'D11Rmaxdate'
p373
g3
sS'D11Rmaxerr'
p374
g3
sS'Fe II 5169 at maximum (linear interpolation error)'
p375
S'#VALUE!'
p376
sS'D11Vmaxerr'
p377
g3
sS'axis ratio sdss'
p378
S'--'
p379
sS'D11Rmaxdateerr'
p380
g3
sS'v2 FeII 5018 date'
p381
g341
sS'DEC'
p382
S'19:36:13'
p383
sS'Type'
p384
g336
sS'cfaJmaxerr'
p385
g341
sS'SNname'
p386
S'sn2006F '
p387
sS'Fe II 5169 at maximum (linear interpolation)'
p388
g341
sS'inclination'
p389
S'--'
p390
sS'cfaHmaxerr'
p391
g341
sS'DFS E(B-V)'
p392
g341
sS'image subtraction needed'
p393
g339
sS'CfA BJD bootstrap'
p394
S'<0000000'
p395
sS'v1 Fe II 5169 date'
p396
g341
sS' CfA E(B-V)hosterr'
p397
S'0.113'
p398
sS'v2 Fe II 5018'
p399
g341
sS'P13 UV data'
p400
S'0'
p401
sS'cfaHmax'
p402
g3
sS'v2 Fe II 5169 error'
p403
g341
sS'CfA IJD bootstrap'
p404
S'<0000000'
p405
sS'cfaKmax'
p406
g341
sS'comment'
p407
S';D11noVmax, noSPEC mu_virgo=33.79 AV_gal=0.629'
p408
sS'dVJD CfA bootstrap'
p409
S'#VALUE!'
p410
sS'radeg'
p411
S'37.0458333333'
p412
sS'distance Mpc'
p413
g3
sS'inclination error'
p414
S'--'
p415
sS'PAIRITEL'
p416
g401
sS'cfaImax'
p417
S'17.47'
p418
sS'Fe II 5169 new'
p419
g3
sS'cfaBmaxerr'
p420
g341
sS'v2 Fe II 5018 error'
p421
g341
sS'E(b-v)host'
p422
S'--'
p423
sS'CfA photometric quality (1best, 3 worst)'
p424
g341
sS'inclination/E(B-V) ref'
p425
S'--'
p426
sS'cfaBmax'
p427
g341
sS'CfA IJD error'
p428
S'<0000000'
p429
sS'D11Vmaxdateerr'
p430
g3
sS'CfA dm15'
p431
S'-0.87'
p432
sS'Fe II 5018 at maximum (linear interpolation)'
p433
g341
sS'CfA BJD error'
p434
S'<0000000'
p435
sS'earliestV'
p436
S'--'
p437
sS'inclination from leida'
p438
g339
sS'CfA dm15 linear'
p439
g341
sS'z'
p440
S'0.013816'
p441
sS'cfaImaxerr'
p442
S'0.03'
p443
sS'cfaJmax'
p444
g3
sS'max_ref'
p445
S'CfA '
p446
sS'v2 Fe II 5169'
p447
g341
sS'FeII51691or2'
p448
S'#DIV/0!'
p449
sS'CfA VJD bootstrap'
p450
g341
sS'v1 Fe II 5018 error'
p451
g341
sS'MaxVdate'
p452
S'20060118.6'
p453
sS'z_ref'
p454
S'NED'
p455
sS'D11Vmax'
p456
g3
sS'distanced11'
p457
g3
sS'separation '
p458
S'15.3'
p459
sS'hostgal'
p460
S'NGC09354142'
p461
sS'E(B-V)'
p462
S'--'
p463
sS'inclination from axes'
p464
g341
sS'CfA RJD error'
p465
S'<0000000'
p466
sS'cfaKmaxerr'
p467
g341
sS'axis ratio'
p468
g341
sS'MaxVMag'
p469
S'18'
p470
sS'cfaRmax'
p471
g341
sS'v1 Fe II 5169 error'
p472
g341
sS'E(B-V) SF2011'
p473
S'0.1635'
p474
sS'cfaUmax'
p475
g341
ssS'fnir'
p476
Nsg183
I00
sS'polysol'
p477
(dp478
g150
Nsg151
Nsg152
Nsg153
Nsg154
Nsg155
Nsg156
Nsg157
Nsg158
Nsg159
Nsg160
NssS'nir'
p479
I00
sS'maxmags'
p480
(dp481
g150
(dp482
g11
F0.0
sg60
Fnan
sg62
Fnan
ssg151
(dp483
g11
F0.0
sg60
Fnan
sg62
Fnan
ssg152
(dp484
g11
F0.0
sg60
Fnan
sg62
Fnan
ssg153
(dp485
g11
F0.0
sg60
Fnan
sg62
Fnan
ssg154
(dp486
g11
F0.0
sg60
Fnan
sg62
Fnan
ssg155
(dp487
g11
F0.0
sg60
Fnan
sg62
Fnan
ssg156
(dp488
g11
F0.0
sg60
Fnan
sg62
Fnan
ssg157
(dp489
g11
F0.0
sg60
Fnan
sg62
Fnan
ssg158
(dp490
g11
F0.0
sg60
Fnan
sg62
Fnan
ssg159
(dp491
g11
F0.0
sg60
Fnan
sg62
Fnan
ssg160
(dp492
g11
F0.0
sg60
Fnan
sg62
Fnan
sssS'snspline'
p493
(dp494
g150
Nsg151
Nsg152
Nsg153
Nsg154
Nsg155
Nsg156
Nsg157
Nsg158
Nsg159
Nsg160
NssS'pipeline'
p495
S'CfA3'
p496
sS'name'
p497
S'sn2006f'
p498
sS'solution'
p499
(dp500
g150
(dp501
S'resid'
p502
NsS'pars'
p503
NsS'sol'
p504
NsS'deg'
p505
Nssg151
(dp506
g502
Nsg503
Nsg504
Nsg505
Nssg152
(dp507
g502
Nsg503
Nsg504
Nsg505
Nssg153
(dp508
g502
Nsg503
Nsg504
Nsg505
Nssg154
(dp509
g502
Nsg503
Nsg504
Nsg505
Nssg155
(dp510
g502
Nsg503
Nsg504
Nsg505
Nssg156
(dp511
g502
Nsg503
Nsg504
Nsg505
Nssg157
(dp512
g502
Nsg503
Nsg504
Nsg505
Nssg158
(dp513
g502
Nsg503
Nsg504
Nsg505
Nssg159
(dp514
g502
Nsg503
Nsg504
Nsg505
Nssg160
(dp515
g502
Nsg503
Nsg504
Nsg505
NsssS'su'
p516
(itemplutils
setupvars
p517
(dp518
S'photcodes'
p519
(dp520
g150
(S'02'
p521
S'07'
p522
tp523
sg151
(S'05'
p524
S'0a'
p525
tp526
sg152
(g152
g152
tp527
sg153
(g153
g153
tp528
sg154
(g154
g154
tp529
sg156
(S'04'
p530
S'09'
p531
tp532
sg159
(S'01'
p533
S'06'
p534
tp535
sg158
(S'03'
p536
S'08'
p537
tp538
sg155
(S'14'
p539
S'0c'
p540
tp541
sg160
(S'13'
p542
S'0b'
p543
tp544
sg157
(S'15'
p545
g545
tp546
ssS'mysymbols'
p547
(dp548
S'Ic-bl'
p549
S'v'
p550
sS'other'
p551
S'x'
p552
sS'IIb'
p553
S'^'
p554
sS'IIb-n'
p555
S'>'
p556
sS'Ic'
p557
S's'
p558
sS'Ib'
p559
S'o'
p560
ssS'bandsnonir'
p561
(lp562
g159
ag157
ag150
ag158
ag156
ag151
ag160
ag155
asS'ebmvcfa'
p563
(dp564
S'07gr'
p565
F0.0462
sS'09iz'
p566
F0.064
sS'04aw'
p567
F0.352
sS'06aj'
p568
F0.141
sS'07ag'
p569
F0.627
sS'02ap'
p570
F0.03
sS'05kl'
p571
F1.344
sS'08bo'
p572
F0.294
sS'06lv'
p573
F0.574
sS'05kz'
p574
F0.437
sS'06F'
p575
F0.533
sS'07uy'
p576
F0.378
sS'08D'
p577
F0.572
sS'05bf'
p578
F0.05
sS'09jf'
p579
F0.045
sS'06bf'
p580
F0.368
sS'06fo'
p581
F0.201
sS'05mf'
p582
F0.231
sS'06T'
p583
F0.397
sS'07ce'
p584
F0.082
sS'07ru'
p585
F0.01
sS'03jd'
p586
F0.1
sS'07cl'
p587
F0.258
sS'09er'
p588
F0.11
sS'06el'
p589
F0.147
sS'06ep'
p590
F0.448
sS'07kj'
p591
F0.295
sS'07C'
p592
F0.65
sS'05hg'
p593
F0.244
ssS'insts'
p594
(lp595
S'shooter'
p596
aS'kepler'
p597
aS'mini'
p598
asS'mycolors'
p599
(dp600
g150
S'#0066cc'
p601
sg151
S'm'
p602
sg152
S'#FFB700'
p603
sg153
S'#A4A4A4'
p604
sg154
S'#4F088A'
p605
sg156
S'#b20000'
p606
sg159
S'k'
p607
sg158
S'#47b56c'
p608
sg155
g602
sg160
g606
sg157
g607
ssS'bands'
p609
(lp610
g159
ag157
ag150
ag158
ag156
ag151
ag160
ag155
ag154
ag152
ag153
asS'mylines'
p611
(dp612
g549
S'dotted'
p613
sg551
S'solid'
p614
sg553
g614
sg555
g614
sg557
g614
sg559
S'dashed'
p615
ssS'mytypecolors'
p616
(dp617
g549
g160
sg551
g607
sg553
S'g'
p618
sg555
S'y'
p619
sg557
g296
sg559
g607
ssS'mycolorcolors'
p620
(dp621
g45
S'#9999EE'
p622
sg33
S'#0B0B3B'
p623
sg43
g606
sg8
S'SlateBlue'
p624
sg13
g622
sg15
g602
sg23
g608
sg21
g602
sg49
g623
sg35
S'#70B8FF'
p625
sg31
g623
sg47
g623
sg37
g601
sg39
S'#FFCC80'
p626
sg51
g607
sg53
S'purple'
p627
sg41
g626
sg17
g606
sg19
g608
ssS'AonEBmV'
p628
(dp629
S'm2'
p630
F4.3
sg150
F4.315
sS'w1'
p631
F4.3
sg151
F1.94
sg152
F0.576
sg153
F0.367
sg154
F0.902
sg155
F2.086
sg156
F2.673
sg159
F5.434
sS'w2'
p632
F4.3
sS'vv'
p633
F3.315
sg158
F3.315
sg157
F5.155
sS'uu'
p634
F5.155
sg160
F2.751
ssS'instcodes'
p635
(dp636
g598
I1
sg597
I0
sg596
I0
ssS'ebmvs'
p637
(dp638
S'04ge'
p639
F0.0754
sS'04gk'
p640
F0.0247
sS'07aw'
p641
F0.0338
sS'04gt'
p642
F0.0398
sS'06gi'
p643
F0.0205
sS'04gv'
p644
F0.0286
sS'04gq'
p645
F0.0627
sg569
F0.025
sg582
F0.0153
sS'97dq'
p646
F0.0382
sS'05ek'
p647
F0.1811
sS'05eo'
p648
F0.0585
sS'98fa'
p649
F0.0382
sS'01ej'
p650
F0.046
sS'93J'
p651
F0.069
sg581
F0.025
sS'05nb'
p652
F0.032
sS'06ir'
p653
F0.0393
sS'09K'
p654
F0.0491
sS'04ff'
p655
F0.0281
sS'04fe'
p656
F0.021
sS'04ao'
p657
F0.0893
sg567
F0.018
sg571
F0.0219
sg573
F0.0245
sS'06ck'
p658
F0.0245
sS'05kf'
p659
F0.0378
sS'07hb'
p660
F0.0518
sg574
F0.046
sS'06ld'
p661
F0.0144
sS'06lc'
p662
F0.0556
sS'05da'
p663
F0.2483
sS'08hh'
p664
F0.0427
sg583
F0.0647
sS'07iq'
p665
F0.1182
sg588
F0.0389
sS'97ef'
p666
F0.0366
sS'96cb'
p667
F0.0262
sg566
F0.0729
sS'05az'
p668
F0.0097
sS'06cb'
p669
F0.0094
sS'05ar'
p670
F0.0394
sg572
F0.0513
sS'07bg'
p671
F0.0179
sS'01ai'
p672
F0.0081
sS'06jc'
p673
F0.0173
sS'06ss'
p674
F0.0178
sg575
F0.1635
sg576
F0.0194
sg578
F0.0385
sS'02ji'
p675
F0.0217
sS'97X'
p676
F0.0237
sg579
F0.0971
sg580
F0.0216
sS'06ba'
p677
F0.0452
sS'08an'
p678
F0.045
sg584
F0.02
sg585
F0.2254
sg586
F0.0784
sg587
F0.037
sS'07rz'
p679
F0.1723
sg589
F0.0973
sg590
F0.031
sg591
F0.0691
sS'08ax'
p680
F0.0186
sS'05U'
p681
F0.0143
sS'07ke'
p682
F0.0954
sS'08aq'
p683
F0.0383
sg565
F0.0535
sS'05la'
p684
F0.01
sS'94I'
p685
F0.0302
sS'95bb'
p686
F0.0948
sg568
F0.1267
sg570
F0.062
sS'98dt'
p687
F0.0219
sS'04eu'
p688
F0.0466
sS'00H'
p689
F0.1964
sS'01gd'
p690
F0.0098
sS'04dn'
p691
F0.0415
sg577
F0.0194
sS'95F'
p692
F0.0311
sS'08cw'
p693
F0.006
sS'07D'
p694
F0.2881
sg592
F0.0363
sg593
F0.0901
sS'04dk'
p695
F0.1357
sS'07I'
p696
F0.025
ssS'ebmvhost'
p697
(dp698
g565
F0.038
sg570
F0.03
sg585
F0.01
sg586
F0.1
sg567
F0.352
sg680
F0.4
sg577
F0.5406
ssS'cs'
p699
(dp700
g8
I13
sg13
I8
sg15
I7
sg17
I3
sg19
I2
sg21
I6
sg23
I5
sg25
I16
sg27
I18
sg29
I17
sg31
I11
sg33
I19
sg35
I10
sg37
I1
sg39
I9
sg41
I14
sg43
I4
sg45
I9
sg47
I11
sg49
I15
sg51
I0
sg53
I12
ssS'bandsindex'
p701
(dp702
g150
I1
sg151
I4
sg152
I8
sg153
I9
sg154
I7
sg156
I3
sg159
I0
sg158
I2
sg155
I6
sg160
I5
sg157
I0
ssS'bandsnir'
p703
(lp704
g154
ag152
ag153
asS'myshapes'
p705
(dp706
g150
g558
sg151
g556
sg152
g558
sg153
g560
sg154
g554
sg156
g550
sg159
g554
sg158
g560
sg155
S'h'
p707
sg160
S'd'
p708
sg157
g554
ssS'types'
p709
(lp710
g559
ag557
ag553
ag549
ag555
asS'cbands'
p711
(lp712
g51
ag47
ag31
ag37
ag19
ag17
ag43
ag23
ag21
ag15
ag13
ag53
ag8
ag41
ag49
ag25
ag29
ag27
aS'H-i'
p713
aS'J-H'
p714
aS'K-J'
p715
asbsS'n'
p716
NsS'dr15'
p717
F0.0
sS'photometry'
p718
(dp719
g150
(dp720
g58
g293
(g294
(I0
tp721
g296
tp722
Rp723
(I1
(I0
tp724
g300
(S'f8'
p725
I0
I1
tp726
Rp727
(I3
S'<'
p728
NNNI-1
I-1
I0
tp729
bI00
g3
tp730
bsS'camsys'
p731
(lp732
g3
asS'natmag'
p733
g293
(g294
(I0
tp734
g296
tp735
Rp736
(I1
(I0
tp737
g727
I00
g3
tp738
bsg60
g293
(g294
(I0
tp739
g296
tp740
Rp741
(I1
(I0
tp742
g727
I00
g3
tp743
bsS'extmag'
p744
g293
(g294
(I0
tp745
g296
tp746
Rp747
(I1
(I0
tp748
g727
I00
g3
tp749
bsg62
g293
(g294
(I0
tp750
g296
tp751
Rp752
(I1
(I0
tp753
g727
I00
g3
tp754
bssg151
(dp755
g58
g293
(g294
(I0
tp756
g296
tp757
Rp758
(I1
(I0
tp759
g727
I00
g3
tp760
bsg731
(lp761
g3
asg733
g293
(g294
(I0
tp762
g296
tp763
Rp764
(I1
(I0
tp765
g727
I00
g3
tp766
bsg60
g293
(g294
(I0
tp767
g296
tp768
Rp769
(I1
(I0
tp770
g727
I00
g3
tp771
bsg744
g293
(g294
(I0
tp772
g296
tp773
Rp774
(I1
(I0
tp775
g727
I00
g3
tp776
bsg62
g293
(g294
(I0
tp777
g296
tp778
Rp779
(I1
(I0
tp780
g727
I00
g3
tp781
bssg152
(dp782
g58
g293
(g294
(I0
tp783
g296
tp784
Rp785
(I1
(I0
tp786
g727
I00
g3
tp787
bsg731
(lp788
g3
asg733
g293
(g294
(I0
tp789
g296
tp790
Rp791
(I1
(I0
tp792
g727
I00
g3
tp793
bsg60
g293
(g294
(I0
tp794
g296
tp795
Rp796
(I1
(I0
tp797
g727
I00
g3
tp798
bsg744
g293
(g294
(I0
tp799
g296
tp800
Rp801
(I1
(I0
tp802
g727
I00
g3
tp803
bsg62
g293
(g294
(I0
tp804
g296
tp805
Rp806
(I1
(I0
tp807
g727
I00
g3
tp808
bssg153
(dp809
g58
g293
(g294
(I0
tp810
g296
tp811
Rp812
(I1
(I0
tp813
g727
I00
g3
tp814
bsg731
(lp815
g3
asg733
g293
(g294
(I0
tp816
g296
tp817
Rp818
(I1
(I0
tp819
g727
I00
g3
tp820
bsg60
g293
(g294
(I0
tp821
g296
tp822
Rp823
(I1
(I0
tp824
g727
I00
g3
tp825
bsg744
g293
(g294
(I0
tp826
g296
tp827
Rp828
(I1
(I0
tp829
g727
I00
g3
tp830
bsg62
g293
(g294
(I0
tp831
g296
tp832
Rp833
(I1
(I0
tp834
g727
I00
g3
tp835
bssg154
(dp836
g58
g293
(g294
(I0
tp837
g296
tp838
Rp839
(I1
(I0
tp840
g727
I00
g3
tp841
bsg731
(lp842
g3
asg733
g293
(g294
(I0
tp843
g296
tp844
Rp845
(I1
(I0
tp846
g727
I00
g3
tp847
bsg60
g293
(g294
(I0
tp848
g296
tp849
Rp850
(I1
(I0
tp851
g727
I00
g3
tp852
bsg744
g293
(g294
(I0
tp853
g296
tp854
Rp855
(I1
(I0
tp856
g727
I00
g3
tp857
bsg62
g293
(g294
(I0
tp858
g296
tp859
Rp860
(I1
(I0
tp861
g727
I00
g3
tp862
bssg155
(dp863
g58
g293
(g294
(I0
tp864
g296
tp865
Rp866
(I1
(I0
tp867
g727
I00
g3
tp868
bsg731
(lp869
g3
asg733
g293
(g294
(I0
tp870
g296
tp871
Rp872
(I1
(I0
tp873
g727
I00
g3
tp874
bsg60
g293
(g294
(I0
tp875
g296
tp876
Rp877
(I1
(I0
tp878
g727
I00
g3
tp879
bsg744
g293
(g294
(I0
tp880
g296
tp881
Rp882
(I1
(I0
tp883
g727
I00
g3
tp884
bsg62
g293
(g294
(I0
tp885
g296
tp886
Rp887
(I1
(I0
tp888
g727
I00
g3
tp889
bssg156
(dp890
g58
g293
(g294
(I0
tp891
g296
tp892
Rp893
(I1
(I0
tp894
g727
I00
g3
tp895
bsg731
(lp896
g3
asg733
g293
(g294
(I0
tp897
g296
tp898
Rp899
(I1
(I0
tp900
g727
I00
g3
tp901
bsg60
g293
(g294
(I0
tp902
g296
tp903
Rp904
(I1
(I0
tp905
g727
I00
g3
tp906
bsg744
g293
(g294
(I0
tp907
g296
tp908
Rp909
(I1
(I0
tp910
g727
I00
g3
tp911
bsg62
g293
(g294
(I0
tp912
g296
tp913
Rp914
(I1
(I0
tp915
g727
I00
g3
tp916
bssg157
(dp917
g58
g293
(g294
(I0
tp918
g296
tp919
Rp920
(I1
(I0
tp921
g727
I00
g3
tp922
bsg731
(lp923
g3
asg733
g293
(g294
(I0
tp924
g296
tp925
Rp926
(I1
(I0
tp927
g727
I00
g3
tp928
bsg60
g293
(g294
(I0
tp929
g296
tp930
Rp931
(I1
(I0
tp932
g727
I00
g3
tp933
bsg744
g293
(g294
(I0
tp934
g296
tp935
Rp936
(I1
(I0
tp937
g727
I00
g3
tp938
bsg62
g293
(g294
(I0
tp939
g296
tp940
Rp941
(I1
(I0
tp942
g727
I00
g3
tp943
bssg158
(dp944
g58
g293
(g294
(I0
tp945
g296
tp946
Rp947
(I1
(I0
tp948
g727
I00
g3
tp949
bsg731
(lp950
g3
asg733
g293
(g294
(I0
tp951
g296
tp952
Rp953
(I1
(I0
tp954
g727
I00
g3
tp955
bsg60
g293
(g294
(I0
tp956
g296
tp957
Rp958
(I1
(I0
tp959
g727
I00
g3
tp960
bsg744
g293
(g294
(I0
tp961
g296
tp962
Rp963
(I1
(I0
tp964
g727
I00
g3
tp965
bsg62
g293
(g294
(I0
tp966
g296
tp967
Rp968
(I1
(I0
tp969
g727
I00
g3
tp970
bssg159
(dp971
g58
g293
(g294
(I0
tp972
g296
tp973
Rp974
(I1
(I0
tp975
g727
I00
g3
tp976
bsg731
(lp977
g3
asg733
g293
(g294
(I0
tp978
g296
tp979
Rp980
(I1
(I0
tp981
g727
I00
g3
tp982
bsg60
g293
(g294
(I0
tp983
g296
tp984
Rp985
(I1
(I0
tp986
g727
I00
g3
tp987
bsg744
g293
(g294
(I0
tp988
g296
tp989
Rp990
(I1
(I0
tp991
g727
I00
g3
tp992
bsg62
g293
(g294
(I0
tp993
g296
tp994
Rp995
(I1
(I0
tp996
g727
I00
g3
tp997
bssg160
(dp998
g58
g293
(g294
(I0
tp999
g296
tp1000
Rp1001
(I1
(I0
tp1002
g727
I00
g3
tp1003
bsg731
(lp1004
g3
asg733
g293
(g294
(I0
tp1005
g296
tp1006
Rp1007
(I1
(I0
tp1008
g727
I00
g3
tp1009
bsg60
g293
(g294
(I0
tp1010
g296
tp1011
Rp1012
(I1
(I0
tp1013
g727
I00
g3
tp1014
bsg744
g293
(g294
(I0
tp1015
g296
tp1016
Rp1017
(I1
(I0
tp1018
g727
I00
g3
tp1019
bsg62
g293
(g294
(I0
tp1020
g296
tp1021
Rp1022
(I1
(I0
tp1023
g727
I00
g3
tp1024
bsssb.