(isnclasses
mysn
p0
(dp1
S'camsystem'
p2
S''
p3
sS'dVmax'
p4
F0.11
sS'nomaxdate'
p5
I00
sS'maxcolors'
p6
(dp7
S'V-K'
p8
(dp9
S'color'
p10
Fnan
sS'epoch'
p11
F0.0
sS'dcolor'
p12
Fnan
ssS'V-H'
p13
(dp14
g10
Fnan
sg11
F0.0
sg12
Fnan
ssS'V-I'
p15
(dp16
g10
Fnan
sg11
F0.0
sg12
Fnan
ssS'R-I'
p17
(dp18
g10
Fnan
sg11
F0.0
sg12
Fnan
ssS'V-R'
p19
(dp20
g10
Fnan
sg11
F0.0
sg12
Fnan
ssS'V-i'
p21
(dp22
g10
Fnan
sg11
F0.0
sg12
Fnan
ssS'V-r'
p23
(dp24
g10
Fnan
sg11
F0.0
sg12
Fnan
ssS'B-J'
p25
(dp26
g10
Fnan
sg11
F0.0
sg12
Fnan
ssS'B-K'
p27
(dp28
g10
Fnan
sg11
F0.0
sg12
Fnan
ssS'B-H'
p29
(dp30
g10
Fnan
sg11
F0.0
sg12
Fnan
ssS'B-I'
p31
(dp32
g10
Fnan
sg11
F0.0
sg12
Fnan
ssS'B-R'
p33
(dp34
g10
Fnan
sg11
F0.0
sg12
Fnan
ssS'J-K'
p35
(dp36
g10
Fnan
sg11
F0.0
sg12
Fnan
ssS'B-V'
p37
(dp38
g10
Fnan
sg11
F0.0
sg12
Fnan
ssS'H-J'
p39
(dp40
g10
Fnan
sg11
F0.0
sg12
Fnan
ssS'H-K'
p41
(dp42
g10
Fnan
sg11
F0.0
sg12
Fnan
ssS'r-i'
p43
(dp44
g10
Fnan
sg11
F0.0
sg12
Fnan
ssS'I-H'
p45
(dp46
g10
Fnan
sg11
F0.0
sg12
Fnan
ssS'B-i'
p47
(dp48
g10
Fnan
sg11
F0.0
sg12
Fnan
ssS'B-r'
p49
(dp50
g10
Fnan
sg11
F0.0
sg12
Fnan
ssS'U-B'
p51
(dp52
g10
Fnan
sg11
F0.0
sg12
Fnan
ssS'r-K'
p53
(dp54
g10
Fnan
sg11
F0.0
sg12
Fnan
sssS'nirlc'
p55
cnumpy.core.multiarray
_reconstruct
p56
(cnumpy
ndarray
p57
(I0
tp58
S'b'
p59
tp60
Rp61
(I1
(I57
tp62
cnumpy
dtype
p63
(S'V13'
p64
I0
I1
tp65
Rp66
(I3
S'|'
p67
N(S'photcode'
p68
S'mjd'
p69
S'mag'
p70
S'dmag'
p71
tp72
(dp73
g69
(g63
(S'f4'
p74
I0
I1
tp75
Rp76
(I3
S'<'
p77
NNNI-1
I-1
I0
tp78
bI1
tp79
sg70
(g76
I5
tp80
sg68
(g63
(S'S1'
p81
I0
I1
tp82
Rp83
(I3
S'|'
p84
NNNI1
I1
I0
tp85
bI0
tp86
sg71
(g76
I9
tp87
sI13
I1
I16
tp88
bI00
S"J)IWG\xcb\xa1mA\x9e\xef'=J1OWGF\xb6gA1\x08\xac<J)PWG\xbctgA\xe3\xa5\x9b<J!eWG{\x14jA\xb6\xf3\xfd<J\x1fkWG\xaa\xf1lA\xcd\xcc\xcc<J\x1coWG'1nA\xe3\xa5\x9b<J\x1cpWGj\xbcnA\x96C\x8b<J$qWG}?oAX9\xb4<J!rWG\xcb\xa1oAX9\xb4<J\rsWG\x0e-pA\x96C\x8b<J\x0ftWG\xa2EpA1\x08\xac<J\x1cvWG\x85\xebqAo\x12\x83<J!wWG\xc5 rAo\x12\x03=J!xWG`\xe5rA\xcd\xcc\xcc<J\x1cyWG\xa4psA\xa6\x9b\xc4<J\x1fzWGJ\x0ctAo\x12\x03=J\x14\x7fWG\x00\x00vA\x1b/\xdd<J\x1f\x80WG\xfe\xd4vA1\x08\xac<J\x17\x88WG\xd9\xceyAo\x12\x83<J\x1c\x92WG\xe7\xfb{AX94=H)IWGNbnA\x12\x83@=H1OWG\xdfOgA\x96C\x8b<H)PWG%\x06gA\xe3\xa5\x9b<H!eWG\x19\x04hA\xbct\x93<H\x1fkWG\xfa~jA333>H\x1coWG\xc9vlA\x9e\xef'=H\x1cpWG\xaeGmAB`\xe5<H$qWG\x8f\xc2mA\xcd\xcc\xcc<H!rWG\xc5 nA\x02+\x07=H\rsWG\x83\xc0nA1\x08\xac<H\x0ftWG\xbe\x9fnA\x96C\x8b<H\x1cvWG\x9a\x99oA\x7fj\xbc<H!wWG\xf8SoAP\x8d\x17=H!xWGq=pA\xe3\xa5\x1b=H\x1cyWG\xa6\x9bpA\x7fj\xbc<H\x1fzWG\xc1\xcaqA\xecQ8=H\x14\x7fWG\x14\xaesA\x96C\x8b=H\x1f\x80WG#\xdbsA1\x08\xac<H\x17\x88WG1\x08vA\x7fj\xbc<H\x1c\x92WGZdyA\xb6\xf3}=K)IWG-\xb2mA\x06\x81\x95=K1OWG\x81\x95eA\n\xd7#=K)PWGR\xb8dAX94=K\x1coWG\x08\xacjAX9\xb4<K\x1cpWG\xe5\xd0lA\x1b/\xdd<K$qWG\x9a\x99mA\x8f\xc2\xf5<K!rWGT\xe3oAP\x8d\x17=K\rsWG\xb6\xf3oA\x8f\xc2\xf5<K\x0ftWGX9pA\n\xd7#=K\x1cvWG5^pAX94=K!wWG\x02+qA\x1b/\xdd<K!xWG;\xdfqAw\xbe\x1f=K\x1fzWG\xb8\x1eqA\xbct\x93=K\x14\x7fWG\\\x8ftA\x8f\xc2\xf5<K\x1f\x80WG\xb6\xf3uA\xe3\xa5\x1b=K\x17\x88WG\xb0rvA\xecQ8=K\x1c\x92WG\xc7K\x80A\xe3\xa5\x1b>"
p89
tp90
bsS'colors'
p91
(dp92
g8
(dp93
S'mjd'
p94
(lp95
sS'dmag'
p96
(lp97
sS'mag'
p98
(lp99
ssg13
(dp100
g94
(lp101
sg96
(lp102
sg98
(lp103
ssg15
(dp104
g94
(lp105
sg96
(lp106
sg98
(lp107
ssg17
(dp108
g94
(lp109
sg96
(lp110
sg98
(lp111
ssg19
(dp112
g94
(lp113
sg96
(lp114
sg98
(lp115
ssg21
(dp116
g94
(lp117
sg96
(lp118
sg98
(lp119
ssg23
(dp120
g94
(lp121
sg96
(lp122
sg98
(lp123
ssg25
(dp124
g94
(lp125
sg96
(lp126
sg98
(lp127
ssg27
(dp128
g94
(lp129
sg96
(lp130
sg98
(lp131
ssg29
(dp132
g94
(lp133
sg96
(lp134
sg98
(lp135
ssg31
(dp136
g94
(lp137
sg96
(lp138
sg98
(lp139
ssg33
(dp140
g94
(lp141
sg96
(lp142
sg98
(lp143
ssg35
(dp144
g94
(lp145
sg96
(lp146
sg98
(lp147
ssg37
(dp148
g94
(lp149
sg96
(lp150
sg98
(lp151
ssg39
(dp152
g94
(lp153
sg96
(lp154
sg98
(lp155
ssg41
(dp156
g94
(lp157
sg96
(lp158
sg98
(lp159
ssg43
(dp160
g94
(lp161
sg96
(lp162
sg98
(lp163
ssg45
(dp164
g94
(lp165
sg96
(lp166
sg98
(lp167
ssg47
(dp168
g94
(lp169
sg96
(lp170
sg98
(lp171
ssg49
(dp172
g94
(lp173
sg96
(lp174
sg98
(lp175
ssg51
(dp176
g94
(lp177
sg96
(lp178
sg98
(lp179
ssg53
(dp180
g94
(lp181
sg96
(lp182
sg98
(lp183
sssS'filters'
p184
(dp185
S'B'
p186
I0
sS'I'
p187
I0
sS'H'
p188
I0
sS'K'
p189
I0
sS'J'
p190
I0
sS'i'
p191
I0
sS'R'
p192
I0
sS'u'
p193
I0
sS'V'
p194
I0
sS'U'
p195
I0
sS'r'
p196
I0
ssS'snnameshort'
p197
S'09jf'
p198
sS'templsol'
p199
(dp200
g186
Nsg187
Nsg188
Nsg189
Nsg190
Nsg191
Nsg192
Nsg193
Nsg194
Nsg195
Nsg196
NssS'Vmaxmag'
p201
F0.0
sS'Vmaxflag'
p202
I00
sS'stats'
p203
(dp204
g186
(isnclasses
snstats
p205
(dp206
S'polyrchisq'
p207
F0.0
sS'Rdm15'
p208
F0.0
sS'tlim'
p209
(lp210
F0.0
aF0.0
asS'maglim'
p211
(lp212
F0.0
aF0.0
asS'templresid'
p213
NsS'polyresid'
p214
NsS'dm15'
p215
F0.0
sS'polydeg'
p216
F0.0
sS'success'
p217
I0
sS'flagmiss15'
p218
I0
sS'flagmissmax'
p219
I0
sS'm15data'
p220
(lp221
F0.0
aF0.0
asS'band'
p222
g3
sS'templrchisq'
p223
F0.0
sS'flagbadfit'
p224
I0
sS'Rdm15lin'
p225
(lp226
F0.0
aF0.0
asS'templatefit'
p227
(dp228
S'stretch'
p229
F1.0
sS'yoffset'
p230
F0.0
sS'xoffset'
p231
F0.0
sS'xstretch'
p232
F1.0
ssS'dm15lin'
p233
(lp234
F0.0
aF0.0
asS'maxjd'
p235
(lp236
F0.0
aF0.0
asS'norm'
p237
F0.0
sg229
F0.0
sbsg187
(isnclasses
snstats
p238
(dp239
g207
F0.0
sg208
F0.0
sg209
(lp240
F0.0
aF0.0
asg211
(lp241
F0.0
aF0.0
asg213
Nsg214
Nsg215
F0.0
sg216
F0.0
sg217
I0
sg218
I0
sg219
I0
sg220
(lp242
F0.0
aF0.0
asg222
g3
sg223
F0.0
sg224
I0
sg225
(lp243
F0.0
aF0.0
asg227
(dp244
g229
F1.0
sg230
F0.0
sg231
F0.0
sg232
F1.0
ssg233
(lp245
F0.0
aF0.0
asg235
(lp246
F0.0
aF0.0
asg237
F0.0
sg229
F0.0
sbsg188
(isnclasses
snstats
p247
(dp248
g207
F0.0
sg208
F0.0
sg209
(lp249
F0.0
aF0.0
asg211
(lp250
F0.0
aF0.0
asg213
Nsg214
Nsg215
F0.0
sg216
F0.0
sg217
I0
sg218
I0
sg219
I0
sg220
(lp251
F0.0
aF0.0
asg222
g3
sg223
F0.0
sg224
I0
sg225
(lp252
F0.0
aF0.0
asg227
(dp253
g229
F1.0
sg230
F0.0
sg231
F0.0
sg232
F1.0
ssg233
(lp254
F0.0
aF0.0
asg235
(lp255
F0.0
aF0.0
asg237
F0.0
sg229
F0.0
sbsg189
(isnclasses
snstats
p256
(dp257
g207
F0.0
sg208
F0.0
sg209
(lp258
F0.0
aF0.0
asg211
(lp259
F0.0
aF0.0
asg213
Nsg214
Nsg215
F0.0
sg216
F0.0
sg217
I0
sg218
I0
sg219
I0
sg220
(lp260
F0.0
aF0.0
asg222
g3
sg223
F0.0
sg224
I0
sg225
(lp261
F0.0
aF0.0
asg227
(dp262
g229
F1.0
sg230
F0.0
sg231
F0.0
sg232
F1.0
ssg233
(lp263
F0.0
aF0.0
asg235
(lp264
F0.0
aF0.0
asg237
F0.0
sg229
F0.0
sbsg190
(isnclasses
snstats
p265
(dp266
g207
F0.0
sg208
F0.0
sg209
(lp267
F0.0
aF0.0
asg211
(lp268
F0.0
aF0.0
asg213
Nsg214
Nsg215
F0.0
sg216
F0.0
sg217
I0
sg218
I0
sg219
I0
sg220
(lp269
F0.0
aF0.0
asg222
g3
sg223
F0.0
sg224
I0
sg225
(lp270
F0.0
aF0.0
asg227
(dp271
g229
F1.0
sg230
F0.0
sg231
F0.0
sg232
F1.0
ssg233
(lp272
F0.0
aF0.0
asg235
(lp273
F0.0
aF0.0
asg237
F0.0
sg229
F0.0
sbsg191
(isnclasses
snstats
p274
(dp275
g207
F0.0
sg208
F0.0
sg209
(lp276
F0.0
aF0.0
asg211
(lp277
F0.0
aF0.0
asg213
Nsg214
Nsg215
F0.0
sg216
F0.0
sg217
I0
sg218
I0
sg219
I0
sg220
(lp278
F0.0
aF0.0
asg222
g3
sg223
F0.0
sg224
I0
sg225
(lp279
F0.0
aF0.0
asg227
(dp280
g229
F1.0
sg230
F0.0
sg231
F0.0
sg232
F1.0
ssg233
(lp281
F0.0
aF0.0
asg235
(lp282
F0.0
aF0.0
asg237
F0.0
sg229
F0.0
sbsg192
(isnclasses
snstats
p283
(dp284
g207
F0.0
sg208
F0.0
sg209
(lp285
F0.0
aF0.0
asg211
(lp286
F0.0
aF0.0
asg213
Nsg214
Nsg215
F0.0
sg216
F0.0
sg217
I0
sg218
I0
sg219
I0
sg220
(lp287
F0.0
aF0.0
asg222
g3
sg223
F0.0
sg224
I0
sg225
(lp288
F0.0
aF0.0
asg227
(dp289
g229
F1.0
sg230
F0.0
sg231
F0.0
sg232
F1.0
ssg233
(lp290
F0.0
aF0.0
asg235
(lp291
F0.0
aF0.0
asg237
F0.0
sg229
F0.0
sbsg193
(isnclasses
snstats
p292
(dp293
g207
F0.0
sg208
F0.0
sg209
(lp294
F0.0
aF0.0
asg211
(lp295
F0.0
aF0.0
asg213
Nsg214
Nsg215
F0.0
sg216
F0.0
sg217
I0
sg218
I0
sg219
I0
sg220
(lp296
F0.0
aF0.0
asg222
g3
sg223
F0.0
sg224
I0
sg225
(lp297
F0.0
aF0.0
asg227
(dp298
g229
F1.0
sg230
F0.0
sg231
F0.0
sg232
F1.0
ssg233
(lp299
F0.0
aF0.0
asg235
(lp300
F0.0
aF0.0
asg237
F0.0
sg229
F0.0
sbsg194
(isnclasses
snstats
p301
(dp302
g207
F0.0
sg208
F0.0
sg209
(lp303
F0.0
aF0.0
asg211
(lp304
F0.0
aF0.0
asg213
Nsg214
Nsg215
F0.0
sg216
F0.0
sg217
I0
sg218
I0
sg219
I0
sg220
(lp305
F0.0
aF0.0
asg222
g3
sg223
F0.0
sg224
I0
sg225
(lp306
F0.0
aF0.0
asg227
(dp307
g229
F1.0
sg230
F0.0
sg231
F0.0
sg232
F1.0
ssg233
(lp308
F0.0
aF0.0
asg235
(lp309
F0.0
aF0.0
asg237
F0.0
sg229
F0.0
sbsg195
(isnclasses
snstats
p310
(dp311
g207
F0.0
sg208
F0.0
sg209
(lp312
F0.0
aF0.0
asg211
(lp313
F0.0
aF0.0
asg213
Nsg214
Nsg215
F0.0
sg216
F0.0
sg217
I0
sg218
I0
sg219
I0
sg220
(lp314
F0.0
aF0.0
asg222
g3
sg223
F0.0
sg224
I0
sg225
(lp315
F0.0
aF0.0
asg227
(dp316
g229
F1.0
sg230
F0.0
sg231
F0.0
sg232
F1.0
ssg233
(lp317
F0.0
aF0.0
asg235
(lp318
F0.0
aF0.0
asg237
F0.0
sg229
F0.0
sbsg196
(isnclasses
snstats
p319
(dp320
g207
F0.0
sg208
F0.0
sg209
(lp321
F0.0
aF0.0
asg211
(lp322
F0.0
aF0.0
asg213
Nsg214
Nsg215
F0.0
sg216
F0.0
sg217
I0
sg218
I0
sg219
I0
sg220
(lp323
F0.0
aF0.0
asg222
g3
sg223
F0.0
sg224
I0
sg225
(lp324
F0.0
aF0.0
asg227
(dp325
g229
F1.0
sg230
F0.0
sg231
F0.0
sg232
F1.0
ssg233
(lp326
F0.0
aF0.0
asg235
(lp327
F0.0
aF0.0
asg237
F0.0
sg229
F0.0
sbssS'lc'
p328
(dp329
g94
g56
(g57
(I0
tp330
g59
tp331
Rp332
(I1
(I184
tp333
g76
I00
S'7OWG PWG"RWG"UWG\x1cVWG&WWG$qWG6OWG\x1fPWG!RWG!UWG\x1bVWG%WWG"XWG\x1aYWG?]WG\x1b`WG=aWGFbWG\x15eWG\x14gWG\x17iWG1nWG)oWG#qWG*rWG\x1atWG&uWG\x1dvWG\x18wWG0xWG\x13\x80WG\x15\x88WG!\x8aWG\x1b\x8dWG\x13\x8eWG\x13\x91WG\x17\xa8WG5OWG\x1ePWG RWG\x1aVWG$WWG!XWG\x19YWG\x1a`WG<aWGFbWG\x14eWG\x13gWG\x16iWG/nWG(oWG"qWG)rWG\x19tWG&uWG\x1bvWG\x17wWG:xWG\x13\x80WG\x14\x88WG \x8aWG\x1a\x8dWG\x12\x8eWG\x12\x91WG\x16\xa8WG5OWG\x1dPWG\x1fRWG\x1fUWG\x1aVWG$WWG XWG\x18YWG\x16[WG;aWGEbWG\x13eWG\x13gWG\x15iWG/nWG\'oWG!qWG(rWG\x18tWG%uWG\x1bvWG\x16wWG\x1dxWG\x12\x80WG\x13\x88WG\x1f\x8aWG\x19\x8dWG\x11\x8eWG\x11\x91WG\x15\xa8WG4OWG\x1cPWG\x1eRWG\x19VWG#WWG\x1fXWG\x17YWG\x16[WG\x18`WGDbWG\x12eWG\x12gWG\x14iWG.nWG&oWG!qWG\'rWG\x18tWG$uWG\x1avWG\x15wWG.xWG\x11\x80WG\x13\x88WG\x1e\x8aWG\x18\x8dWG\x10\x8eWG\x10\x91WG\x18\xa5WG\x14\xa8WG)IWG1OWG)PWG!eWG\x1fkWG\x1coWG\x1cpWG$qWG!rWG\rsWG\x0ftWG\x1cvWG!wWG!xWG\x1cyWG\x1fzWG\x14\x7fWG\x1f\x80WG\x17\x88WG\x1c\x92WG)IWG1OWG)PWG!eWG\x1fkWG\x1coWG\x1cpWG$qWG!rWG\rsWG\x0ftWG\x1cvWG!wWG!xWG\x1cyWG\x1fzWG\x14\x7fWG\x1f\x80WG\x17\x88WG\x1c\x92WG)IWG1OWG)PWG\x1coWG\x1cpWG$qWG!rWG\rsWG\x0ftWG\x1cvWG!wWG!xWG\x1fzWG\x14\x7fWG\x1f\x80WG\x17\x88WG\x1c\x92WG'
p334
tp335
bsS'ccmag'
p336
g56
(g57
(I0
tp337
g59
tp338
Rp339
(I1
(I184
tp340
g76
I00
S'q=\x86AC\x9c\x86A\xc9\xf6\x86A\x06\x01\x8aAD\xe9\x89A#J\x8cA\xec@\x9aAQkzAC\xadzA\xc7K{A3\xc4}A\xcb\x10~A\xf1c\x7fA\xe97\x80A\t\xf9\x80A<\xce\x83A\x9c\xc4\x86A\xbc\xf4\x86A\x19\xe2\x87A=\xac\x89A\x91\xfe\x8aAC\x1c\x8cAWl\x8dA\xa8\xd7\x8dA}?\x8eAu\x02\x8eA\xa3#\x8eA\xebs\x8eA\xa24\x8eA\xbe\x9f\x8eAM\x84\x8eAz\xc7\x8eA\xe4\x83\x8fA"\xec\x8fA\xdby\x90A>\xf9\x8fAH\xe1\x90A\xdfO\x92A\x9c\xa2qA\xcc\x7fqA\xb7bqA!\x1frA\xcb\xa1rA\x93:sA\x1a\xc0sA\xfb\xcbzA\x19\x04|A\x8c\xb9|A\xa8W\x7fAM\x84\x80A\x8c[\x81A\x1b\r\x83A\x0e\xad\x83A\x89\xc1\x83A\x1d\xda\x83A\xcd;\x84A\xa4_\x84A\'\xa0\x84A\xcb\xa1\x84AH\xe1\x84A3\xc4\x85Au\x93\x86Aa\xc3\x86A\xaf%\x87A/]\x87A<\xbd\x87A\x9bU\x8aA)\xcbpA\x15\x8cpA\x8a\x1fpA\x86\xc9pA\x9f<pA2wpA3\xc4pA\x89AqAV\x0erA\x16\xfbvAS\x05wA;\xdfyA\xec/{A\x11\xc7|A\xd1\x11\x80A\r`\x80Az\xc7\x80A\xd7#\x81A\xaaq\x81AP\x8d\x81A\xd3\xcd\x81Ap\xdf\x81Acn\x82A\xd9=\x83A\xf2R\x84A\x99\xaa\x84A\x19\xe2\x84A\x96!\x85A\xc9v\x85A\xdf`\x88A\xdcFqA\xb1\xe1pA\xbe0pA33pA\xb4YpA\x9d\x80pA\xf5\xb9pA*:qA\xbc\x05tA\xa2EuA\xb1\xbfwA\x0c\x02yA%uzA\xb2\x9d}A\x9bU~A\xfb:\x7fA\xd7\xa3\x7fA\xbaI\x80Au\x93\x80A\xfc\xa9\x80A\x91\xed\x80A\x0f\x1c\x81A\x10i\x82Aw\xbe\x83A?\xd7\x83A\x88\x85\x84A\x1b\xaf\x84AY\x06\x85A\r\xe0\x86A\xa9$\x88A\xcb\xa1mAF\xb6gA\xbctgA{\x14jA\xaa\xf1lA\'1nAj\xbcnA}?oA\xcb\xa1oA\x0e-pA\xa2EpA\x85\xebqA\xc5 rA`\xe5rA\xa4psAJ\x0ctA\x00\x00vA\xfe\xd4vA\xd9\xceyA\xe7\xfb{ANbnA\xdfOgA%\x06gA\x19\x04hA\xfa~jA\xc9vlA\xaeGmA\x8f\xc2mA\xc5 nA\x83\xc0nA\xbe\x9fnA\x9a\x99oA\xf8SoAq=pA\xa6\x9bpA\xc1\xcaqA\x14\xaesA#\xdbsA1\x08vAZdyA-\xb2mA\x81\x95eAR\xb8dA\x08\xacjA\xe5\xd0lA\x9a\x99mAT\xe3oA\xb6\xf3oAX9pA5^pA\x02+qA;\xdfqA\xb8\x1eqA\\\x8ftA\xb6\xf3uA\xb0rvA\xc7K\x80A'
p341
tp342
bsg98
g56
(g57
(I0
tp343
g59
tp344
Rp345
(I1
(I184
tp346
g76
I00
S"\xc9\xf6\x84A\xc1J\x85A\xa0\x9a\x85A;_\x88A\xd3M\x88A\xe7{\x8aAu\x13\x98A\x12\x83yA^\xbayA\xa2EzA+\x87|A\xfe\xd4|Ao\x12~Ao\x12\x7fAq=\x80A\xdb\xf9\x82A\xcd\xcc\x85A1\x08\x86Af\xe6\x86A\xd7\xa3\x88Ay\xe9\x89A\x00\x00\x8bA\x1dZ\x8cA\xc1\xca\x8cA\xfc)\x8dA\xc3\xf5\x8cA\xb2\x1d\x8dAyi\x8dAL7\x8dA\x8d\x97\x8dA\x1f\x85\x8dA\x17\xd9\x8dA\x8d\x97\x8eA\xdb\xf9\x8eA\x12\x83\x8fA\x81\x15\x8fA\x9e\xef\x8fA\xee|\x91A\n\xd7qAF\xb6qA\xb2\x9dqAffrA\x91\xedrA7\x89sA{\x14tAd;{A\x98n|A\x02+}A\xd9\xce\x7fA\x8f\xc2\x80A\xa6\x9b\x81A\xc1J\x83Ay\xe9\x83A\x00\x00\x84A\x87\x16\x84A\xc9v\x84A\xa6\x9b\x84A\x17\xd9\x84A/\xdd\x84A\xa0\x1a\x85A\xdb\xf9\x85A\xb4\xc8\x86A\xdb\xf9\x86A/]\x87Ab\x90\x87A\xb6\xf3\x87A\x1f\x85\x8aA\xdb\xf9pAj\xbcpA\xecQpA=\nqA\xc9vpA9\xb4pA\x0c\x02qA\x1f\x85qA\xecQrA\x96CwA\xdfOwA'1zA\x1f\x85{A\xb8\x1e}Ad;\x80A%\x86\x80A\xaa\xf1\x80A\xd3M\x81A\x9a\x99\x81AF\xb6\x81A\xb6\xf3\x81A1\x08\x82A\x8d\x97\x82ANb\x83A\xd5x\x84A\xf2\xd2\x84A=\n\x85A\xa2E\x85A\xb2\x9d\x85A\x12\x83\x88A\xd5xqA{\x14qAZdpA\x98npA\x8d\x97pAw\xbepA\xe7\xfbpA\xe1zqA\xc7KtA7\x89uA1\x08xA\xd3MyA\x8f\xc2zA`\xe5}A\x8d\x97~A\x1f\x85\x7fA\x85\xeb\x7fA\x8bl\x80AR\xb8\x80A\xc1\xca\x80Ao\x12\x81Aw>\x81A=\x8a\x82AN\xe2\x83A\xe7\xfb\x83A\x0e\xad\x84A\xec\xd1\x84A\x08,\x85A\xf4\xfd\x86A\xa8F\x88A\xcb\xa1mAF\xb6gA\xbctgA{\x14jA\xaa\xf1lA'1nAj\xbcnA}?oA\xcb\xa1oA\x0e-pA\xa2EpA\x85\xebqA\xc5 rA`\xe5rA\xa4psAJ\x0ctA\x00\x00vA\xfe\xd4vA\xd9\xceyA\xe7\xfb{ANbnA\xdfOgA%\x06gA\x19\x04hA\xfa~jA\xc9vlA\xaeGmA\x8f\xc2mA\xc5 nA\x83\xc0nA\xbe\x9fnA\x9a\x99oA\xf8SoAq=pA\xa6\x9bpA\xc1\xcaqA\x14\xaesA#\xdbsA1\x08vAZdyA-\xb2mA\x81\x95eAR\xb8dA\x08\xacjA\xe5\xd0lA\x9a\x99mAT\xe3oA\xb6\xf3oAX9pA5^pA\x02+qA;\xdfqA\xb8\x1eqA\\\x8ftA\xb6\xf3uA\xb0rvA\xc7K\x80A"
p347
tp348
bsS'photcode'
p349
g56
(g57
(I0
tp350
g59
tp351
Rp352
(I1
(I184
tp353
g63
(S'S2'
p354
I0
I1
tp355
Rp356
(I3
S'|'
p357
NNNI2
I1
I0
tp358
bI00
S'15151515151515020202020202020202020202020202020202020202020202020202020202020303030303030303030303030303030303030303030303030303030303131313131313131313131313131313131313131313131313131313131313141414141414141414141414141414141414141414141414141414141414J\x00J\x00J\x00J\x00J\x00J\x00J\x00J\x00J\x00J\x00J\x00J\x00J\x00J\x00J\x00J\x00J\x00J\x00J\x00J\x00H\x00H\x00H\x00H\x00H\x00H\x00H\x00H\x00H\x00H\x00H\x00H\x00H\x00H\x00H\x00H\x00H\x00H\x00H\x00H\x00K\x00K\x00K\x00K\x00K\x00K\x00K\x00K\x00K\x00K\x00K\x00K\x00K\x00K\x00K\x00K\x00K\x00'
p359
tp360
bsg96
g56
(g57
(I0
tp361
g59
tp362
Rp363
(I1
(I184
tp364
g76
I00
S"%\x06\x01=o\x12\x03=#\xdb\xf9<\xa6\x9bD=\x9e\xef'=\xa6\x9bD=\xf6(\x1c>\xb6\xf3}<B`e<\x8f\xc2u<h\x91\xed<o\x12\x83<o\x12\x83<\x96C\x8b<o\x12\x83<\xf4\xfd\xd4<\xcd\xcc\xcc<o\x12\x03=\xe7\xfb)=1\x08\xac<1\x08\xac<\x12\x83\xc0<\x1b/\xdd<\x02+\x07=\x1b/\xdd<`\xe5\xd0<\xcd\xcc\xcc<\xd5x\xe9<#\xdb\xf9<\xb6\xf3\xfd<\xbct\x13=\xe3\xa5\x1b=\x1b/\xdd<o\x12\x03=\xbct\x13=\xb8\x1e\x05=\xe3\xa5\x1b=\x9e\xef'=\x8f\xc2u<\x8f\xc2u<\x8f\xc2u<\x8f\xc2u<\x8f\xc2u<\x8f\xc2u<\x8f\xc2u<\x96C\x8b<\x96C\x8b<\xe3\xa5\x9b<\x8f\xc2u<o\x12\x83<o\x12\x83<\xbct\x93<\x02+\x07=\x96C\x8b<\x96C\x8b<o\x12\x83<o\x12\x83<\x96C\x8b<o\x12\x83<\xbct\x93<\xbct\x93<\xbct\x93<\xe3\xa5\x9b<\x96C\x8b<)\\\x8f<\xe3\xa5\x9b<\xa6\x9b\xc4<o\x12\x83<\x8f\xc2u<o\x12\x83<h\x91\xed<o\x12\x83<\x8f\xc2u<o\x12\x83<\x8f\xc2u<\xe3\xa5\x9b<\xbct\x93<\x96C\x8b<\x8f\xc2u<o\x12\x83<o\x12\x83<o\x12\x83<h\x91m<\xbct\x93<o\x12\x83<o\x12\x83<o\x12\x83<\x96C\x8b<\x96C\x8b<\xbct\x93<\xbct\x93<\x96C\x8b<\xbct\x93<\x96C\x8b<\x96C\x8b<o\x12\x83<\xbct\x93<\xbct\x93<1\x08\xac<\xbct\x93<\xbct\x93<\xe3\xa5\x9b<\xe3\xa5\x9b<\xe3\xa5\x9b<\n\xd7\xa3<\xe3\xa5\x9b<\x96C\x8b<\xbct\x93<)\\\x8f<\xbct\x93<\x96C\x8b<\xbct\x93<\xe3\xa5\x9b<\xe3\xa5\x9b<\xe3\xa5\x9b<\xe3\xa5\x9b<\x96C\x8b<\n\xd7\xa3<\n\xd7\xa3<\n\xd7\xa3<\xe3\xa5\x9b<\n\xd7\xa3<\xbct\x93<\xe3\xa5\x9b<\xbct\x93<)\\\x0f=1\x08\xac<\x9e\xef'=1\x08\xac<\xe3\xa5\x9b<\xb6\xf3\xfd<\xcd\xcc\xcc<\xe3\xa5\x9b<\x96C\x8b<X9\xb4<X9\xb4<\x96C\x8b<1\x08\xac<o\x12\x83<o\x12\x03=\xcd\xcc\xcc<\xa6\x9b\xc4<o\x12\x03=\x1b/\xdd<1\x08\xac<o\x12\x83<X94=\x12\x83@=\x96C\x8b<\xe3\xa5\x9b<\xbct\x93<333>\x9e\xef'=B`\xe5<\xcd\xcc\xcc<\x02+\x07=1\x08\xac<\x96C\x8b<\x7fj\xbc<P\x8d\x17=\xe3\xa5\x1b=\x7fj\xbc<\xecQ8=\x96C\x8b=1\x08\xac<\x7fj\xbc<\xb6\xf3}=\x06\x81\x95=\n\xd7#=X94=X9\xb4<\x1b/\xdd<\x8f\xc2\xf5<P\x8d\x17=\x8f\xc2\xf5<\n\xd7#=X94=\x1b/\xdd<w\xbe\x1f=\xbct\x93=\x8f\xc2\xf5<\xe3\xa5\x1b=\xecQ8=\xe3\xa5\x1b>"
p365
tp366
bssS'Rmax'
p367
(dp368
sS'polyfit'
p369
NsS'ebmvtot'
p370
F0.0
sS'Vmax'
p371
F2455122.81
sS'type'
p372
S'Ib'
p373
sS'metadata'
p374
(dp375
g3
S'0.89'
p376
sS'cfaUmaxerr'
p377
S'-'
p378
sS'v2 Fe II 5169 date'
p379
S'1'
p380
sS'D11Rmax'
p381
g3
sS'v_z'
p382
S'2443'
p383
sS'E(b-v)hosterr'
p384
S'--'
p385
sS'v1 Fe II 5018 date'
p386
S'0'
p387
sS'cfaRmaxerr'
p388
S'0.01'
p389
sS'CfA RJD bootstrap'
p390
S'55123.52'
p391
sS'inclination from axes sdss'
p392
S'52.9849831915721'
p393
sS'my E(B-V)host from inclination'
p394
S'0.362842632357595'
p395
sS'RA'
p396
S'23:04:52'
p397
sS'cfaVmaxerr'
p398
S'0.02'
p399
sS'Dm15 (with Lyman BC correction)'
p400
S'1.1510357102'
p401
sS'CfA E(B-V)host'
p402
S'0.046'
p403
sS'lcvquality'
p404
g380
sS'v1 Fe II 5169 '
p405
S'-9344.8'
p406
sS'decdeg'
p407
S'12.3331944444'
p408
sS'cfaVmax'
p409
S'15.03'
p410
sS'CfA VJD bootstrap error'
p411
S'0.11'
p412
sS'MaxVJD'
p413
S'2455121.5'
p414
sS'D11Vmaxdate'
p415
g3
sS'v1 Fe II 5018 '
p416
S'-10502.5'
p417
sS'D11Rmaxdate'
p418
g3
sS'D11Rmaxerr'
p419
g3
sS'Fe II 5169 at maximum (linear interpolation error)'
p420
S'1422.16303566082'
p421
sS'D11Vmaxerr'
p422
g3
sS'axis ratio sdss'
p423
S'0.661'
p424
sS'D11Rmaxdateerr'
p425
g3
sS'v2 FeII 5018 date'
p426
g380
sS'DEC'
p427
S'+12:19:59.5'
p428
sS'Type'
p429
g373
sS'cfaJmaxerr'
p430
S'0.03'
p431
sS'SNname'
p432
S'sn2009jf'
p433
sS'Fe II 5169 at maximum (linear interpolation)'
p434
S'-9344.76'
p435
sS'inclination'
p436
S'--'
p437
sS'cfaHmaxerr'
p438
S'0.06'
p439
sS'DFS E(B-V)'
p440
S'0.1129'
p441
sS'image subtraction needed'
p442
S'?'
p443
sS'CfA BJD bootstrap'
p444
S'55119.23'
p445
sS'v1 Fe II 5169 date'
p446
g387
sS' CfA E(B-V)hosterr'
p447
S'0.036'
p448
sS'v2 Fe II 5018'
p449
S'-10525.8'
p450
sS'P13 UV data'
p451
S'Y'
p452
sS'cfaHmax'
p453
S'14.29'
p454
sS'v2 Fe II 5169 error'
p455
S'1034.3'
p456
sS'CfA IJD bootstrap'
p457
S'<0000000'
p458
sS'cfaKmax'
p459
S'13.89'
p460
sS'comment'
p461
S';our data, not v. good: 20091018.2  2455122.7  15.07 dm15   = 0.66 '
p462
sS'dVJD CfA bootstrap'
p463
S'-1.31000000005588'
p464
sS'radeg'
p465
S'346.216666667'
p466
sS'distance Mpc'
p467
S'35.1621734659'
p468
sS'inclination error'
p469
S'--'
p470
sS'PAIRITEL'
p471
g452
sS'cfaImax'
p472
S'15.01'
p473
sS'Fe II 5169 new'
p474
g3
sS'cfaBmaxerr'
p475
S'0.01'
p476
sS'v2 Fe II 5018 error'
p477
S'1388.4'
p478
sS'E(b-v)host'
p479
S'--'
p480
sS'CfA photometric quality (1best, 3 worst)'
p481
g380
sS'inclination/E(B-V) ref'
p482
S'--'
p483
sS'cfaBmax'
p484
S'15.66'
p485
sS'CfA IJD error'
p486
S'<0000000'
p487
sS'D11Vmaxdateerr'
p488
g3
sS'CfA dm15'
p489
S'-0.742'
p490
sS'Fe II 5018 at maximum (linear interpolation)'
p491
S'-10502.5'
p492
sS'CfA BJD error'
p493
S'0.21'
p494
sS'earliestV'
p495
S'--'
p496
sS'inclination from leida'
p497
S'43'
p498
sS'CfA dm15 linear'
p499
S'-0.554'
p500
sS'z'
p501
S'0.008148'
p502
sS'cfaImaxerr'
p503
S'0.02'
p504
sS'cfaJmax'
p505
S'14.42'
p506
sS'max_ref'
p507
S'V11'
p508
sS'v2 Fe II 5169'
p509
S'-9307.3'
p510
sS'FeII51691or2'
p511
S'-9326.05'
p512
sS'CfA VJD bootstrap'
p513
S'2455122.81'
p514
sS'v1 Fe II 5018 error'
p515
S'1577'
p516
sS'MaxVdate'
p517
S'20091017'
p518
sS'z_ref'
p519
S'NED'
p520
sS'D11Vmax'
p521
g3
sS'distanced11'
p522
S'--'
p523
sS'separation '
p524
g378
sS'hostgal'
p525
S'NGC7479'
p526
sS'E(B-V)'
p527
S'--'
p528
sS'inclination from axes'
p529
S'79.812816581341'
p530
sS'CfA RJD error'
p531
S'0.07'
p532
sS'cfaKmaxerr'
p533
S'0.03'
p534
sS'axis ratio'
p535
S'0.299966295921806'
p536
sS'MaxVMag'
p537
S'15.03'
p538
sS'cfaRmax'
p539
S'15'
p540
sS'v1 Fe II 5169 error'
p541
S'976.1'
p542
sS'E(B-V) SF2011'
p543
S'0.0971'
p544
sS'cfaUmax'
p545
g378
ssS'fnir'
p546
S'/Users/fbianco/science/Dropbox/strippedcfaSN//nirphot/PAIRITEL_Ibc/Ibc/lcs/mag/sn2009jf_SN.185.rec.p3.fdi.exclude_bad.nntemp.galsub.f12.SNR3.clean.mag.dat'
p547
sg219
I00
sS'polysol'
p548
(dp549
g186
Nsg187
Nsg188
Nsg189
Nsg190
Nsg191
Nsg192
Nsg193
Nsg194
Nsg195
Nsg196
NssS'nir'
p550
I01
sS'maxmags'
p551
(dp552
g186
(dp553
g11
F0.0
sg96
Fnan
sg98
Fnan
ssg187
(dp554
g11
F0.0
sg96
Fnan
sg98
Fnan
ssg188
(dp555
g11
F0.0
sg96
Fnan
sg98
Fnan
ssg189
(dp556
g11
F0.0
sg96
Fnan
sg98
Fnan
ssg190
(dp557
g11
F0.0
sg96
Fnan
sg98
Fnan
ssg191
(dp558
g11
F0.0
sg96
Fnan
sg98
Fnan
ssg192
(dp559
g11
F0.0
sg96
Fnan
sg98
Fnan
ssg193
(dp560
g11
F0.0
sg96
Fnan
sg98
Fnan
ssg194
(dp561
g11
F0.0
sg96
Fnan
sg98
Fnan
ssg195
(dp562
g11
F0.0
sg96
Fnan
sg98
Fnan
ssg196
(dp563
g11
F0.0
sg96
Fnan
sg98
Fnan
sssS'snspline'
p564
(dp565
g186
Nsg187
Nsg188
Nsg189
Nsg190
Nsg191
Nsg192
Nsg193
Nsg194
Nsg195
Nsg196
NssS'pipeline'
p566
S'CfA4'
p567
sS'name'
p568
S'sn2009jf'
p569
sS'solution'
p570
(dp571
g186
(dp572
S'resid'
p573
NsS'pars'
p574
NsS'sol'
p575
NsS'deg'
p576
Nssg187
(dp577
g573
Nsg574
Nsg575
Nsg576
Nssg188
(dp578
g573
Nsg574
Nsg575
Nsg576
Nssg189
(dp579
g573
Nsg574
Nsg575
Nsg576
Nssg190
(dp580
g573
Nsg574
Nsg575
Nsg576
Nssg191
(dp581
g573
Nsg574
Nsg575
Nsg576
Nssg192
(dp582
g573
Nsg574
Nsg575
Nsg576
Nssg193
(dp583
g573
Nsg574
Nsg575
Nsg576
Nssg194
(dp584
g573
Nsg574
Nsg575
Nsg576
Nssg195
(dp585
g573
Nsg574
Nsg575
Nsg576
Nssg196
(dp586
g573
Nsg574
Nsg575
Nsg576
NsssS'su'
p587
(itemplutils
setupvars
p588
(dp589
S'photcodes'
p590
(dp591
g186
(S'02'
p592
S'07'
p593
tp594
sg187
(S'05'
p595
S'0a'
p596
tp597
sg188
(g188
g188
tp598
sg189
(g189
g189
tp599
sg190
(g190
g190
tp600
sg192
(S'04'
p601
S'09'
p602
tp603
sg195
(S'01'
p604
S'06'
p605
tp606
sg194
(S'03'
p607
S'08'
p608
tp609
sg191
(S'14'
p610
S'0c'
p611
tp612
sg196
(S'13'
p613
S'0b'
p614
tp615
sg193
(S'15'
p616
g616
tp617
ssS'mysymbols'
p618
(dp619
S'Ic-bl'
p620
S'v'
p621
sS'other'
p622
S'x'
p623
sS'IIb'
p624
S'^'
p625
sS'IIb-n'
p626
S'>'
p627
sS'Ic'
p628
S's'
p629
sS'Ib'
p630
S'o'
p631
ssS'bandsnonir'
p632
(lp633
g195
ag193
ag186
ag194
ag192
ag187
ag196
ag191
asS'ebmvcfa'
p634
(dp635
S'07gr'
p636
F0.0462
sS'09iz'
p637
F0.064
sS'04aw'
p638
F0.352
sS'06aj'
p639
F0.141
sS'07ag'
p640
F0.627
sS'02ap'
p641
F0.03
sS'05kl'
p642
F1.344
sS'08bo'
p643
F0.294
sS'06lv'
p644
F0.574
sS'05kz'
p645
F0.437
sS'06F'
p646
F0.533
sS'07uy'
p647
F0.378
sS'08D'
p648
F0.572
sS'05bf'
p649
F0.05
sS'09jf'
p650
F0.045
sS'06bf'
p651
F0.368
sS'06fo'
p652
F0.201
sS'05mf'
p653
F0.231
sS'06T'
p654
F0.397
sS'07ce'
p655
F0.082
sS'07ru'
p656
F0.01
sS'03jd'
p657
F0.1
sS'07cl'
p658
F0.258
sS'09er'
p659
F0.11
sS'06el'
p660
F0.147
sS'06ep'
p661
F0.448
sS'07kj'
p662
F0.295
sS'07C'
p663
F0.65
sS'05hg'
p664
F0.244
ssS'insts'
p665
(lp666
S'shooter'
p667
aS'kepler'
p668
aS'mini'
p669
asS'mycolors'
p670
(dp671
g186
S'#0066cc'
p672
sg187
S'm'
p673
sg188
S'#FFB700'
p674
sg189
S'#A4A4A4'
p675
sg190
S'#4F088A'
p676
sg192
S'#b20000'
p677
sg195
S'k'
p678
sg194
S'#47b56c'
p679
sg191
g673
sg196
g677
sg193
g678
ssS'bands'
p680
(lp681
g195
ag193
ag186
ag194
ag192
ag187
ag196
ag191
ag190
ag188
ag189
asS'mylines'
p682
(dp683
g620
S'dotted'
p684
sg622
S'solid'
p685
sg624
g685
sg626
g685
sg628
g685
sg630
S'dashed'
p686
ssS'mytypecolors'
p687
(dp688
g620
g196
sg622
g678
sg624
S'g'
p689
sg626
S'y'
p690
sg628
g59
sg630
g678
ssS'mycolorcolors'
p691
(dp692
g45
S'#9999EE'
p693
sg33
S'#0B0B3B'
p694
sg43
g677
sg8
S'SlateBlue'
p695
sg13
g693
sg15
g673
sg23
g679
sg21
g673
sg49
g694
sg35
S'#70B8FF'
p696
sg31
g694
sg47
g694
sg37
g672
sg39
S'#FFCC80'
p697
sg51
g678
sg53
S'purple'
p698
sg41
g697
sg17
g677
sg19
g679
ssS'AonEBmV'
p699
(dp700
S'm2'
p701
F4.3
sg186
F4.315
sS'w1'
p702
F4.3
sg187
F1.94
sg188
F0.576
sg189
F0.367
sg190
F0.902
sg191
F2.086
sg192
F2.673
sg195
F5.434
sS'w2'
p703
F4.3
sS'vv'
p704
F3.315
sg194
F3.315
sg193
F5.155
sS'uu'
p705
F5.155
sg196
F2.751
ssS'instcodes'
p706
(dp707
g669
I1
sg668
I0
sg667
I0
ssS'ebmvs'
p708
(dp709
S'04ge'
p710
F0.0754
sS'04gk'
p711
F0.0247
sS'07aw'
p712
F0.0338
sS'04gt'
p713
F0.0398
sS'06gi'
p714
F0.0205
sS'04gv'
p715
F0.0286
sS'04gq'
p716
F0.0627
sg640
F0.025
sg653
F0.0153
sS'97dq'
p717
F0.0382
sS'05ek'
p718
F0.1811
sS'05eo'
p719
F0.0585
sS'98fa'
p720
F0.0382
sS'01ej'
p721
F0.046
sS'93J'
p722
F0.069
sg652
F0.025
sS'05nb'
p723
F0.032
sS'06ir'
p724
F0.0393
sS'09K'
p725
F0.0491
sS'04ff'
p726
F0.0281
sS'04fe'
p727
F0.021
sS'04ao'
p728
F0.0893
sg638
F0.018
sg642
F0.0219
sg644
F0.0245
sS'06ck'
p729
F0.0245
sS'05kf'
p730
F0.0378
sS'07hb'
p731
F0.0518
sg645
F0.046
sS'06ld'
p732
F0.0144
sS'06lc'
p733
F0.0556
sS'05da'
p734
F0.2483
sS'08hh'
p735
F0.0427
sg654
F0.0647
sS'07iq'
p736
F0.1182
sg659
F0.0389
sS'97ef'
p737
F0.0366
sS'96cb'
p738
F0.0262
sg637
F0.0729
sS'05az'
p739
F0.0097
sS'06cb'
p740
F0.0094
sS'05ar'
p741
F0.0394
sg643
F0.0513
sS'07bg'
p742
F0.0179
sS'01ai'
p743
F0.0081
sS'06jc'
p744
F0.0173
sS'06ss'
p745
F0.0178
sg646
F0.1635
sg647
F0.0194
sg649
F0.0385
sS'02ji'
p746
F0.0217
sS'97X'
p747
F0.0237
sg650
F0.0971
sg651
F0.0216
sS'06ba'
p748
F0.0452
sS'08an'
p749
F0.045
sg655
F0.02
sg656
F0.2254
sg657
F0.0784
sg658
F0.037
sS'07rz'
p750
F0.1723
sg660
F0.0973
sg661
F0.031
sg662
F0.0691
sS'08ax'
p751
F0.0186
sS'05U'
p752
F0.0143
sS'07ke'
p753
F0.0954
sS'08aq'
p754
F0.0383
sg636
F0.0535
sS'05la'
p755
F0.01
sS'94I'
p756
F0.0302
sS'95bb'
p757
F0.0948
sg639
F0.1267
sg641
F0.062
sS'98dt'
p758
F0.0219
sS'04eu'
p759
F0.0466
sS'00H'
p760
F0.1964
sS'01gd'
p761
F0.0098
sS'04dn'
p762
F0.0415
sg648
F0.0194
sS'95F'
p763
F0.0311
sS'08cw'
p764
F0.006
sS'07D'
p765
F0.2881
sg663
F0.0363
sg664
F0.0901
sS'04dk'
p766
F0.1357
sS'07I'
p767
F0.025
ssS'ebmvhost'
p768
(dp769
g636
F0.038
sg641
F0.03
sg656
F0.01
sg657
F0.1
sg638
F0.352
sg751
F0.4
sg648
F0.5406
ssS'cs'
p770
(dp771
g8
I13
sg13
I8
sg15
I7
sg17
I3
sg19
I2
sg21
I6
sg23
I5
sg25
I16
sg27
I18
sg29
I17
sg31
I11
sg33
I19
sg35
I10
sg37
I1
sg39
I9
sg41
I14
sg43
I4
sg45
I9
sg47
I11
sg49
I15
sg51
I0
sg53
I12
ssS'bandsindex'
p772
(dp773
g186
I1
sg187
I4
sg188
I8
sg189
I9
sg190
I7
sg192
I3
sg195
I0
sg194
I2
sg191
I6
sg196
I5
sg193
I0
ssS'bandsnir'
p774
(lp775
g190
ag188
ag189
asS'myshapes'
p776
(dp777
g186
g629
sg187
g627
sg188
g629
sg189
g631
sg190
g625
sg192
g621
sg195
g625
sg194
g631
sg191
S'h'
p778
sg196
S'd'
p779
sg193
g625
ssS'types'
p780
(lp781
g630
ag628
ag624
ag620
ag626
asS'cbands'
p782
(lp783
g51
ag47
ag31
ag37
ag19
ag17
ag43
ag23
ag21
ag15
ag13
ag53
ag8
ag41
ag49
ag25
ag29
ag27
aS'H-i'
p784
aS'J-H'
p785
aS'K-J'
p786
asbsS'n'
p787
NsS'dr15'
p788
F0.0
sS'photometry'
p789
(dp790
g186
(dp791
g94
g56
(g57
(I0
tp792
g59
tp793
Rp794
(I1
(I0
tp795
g63
(S'f8'
p796
I0
I1
tp797
Rp798
(I3
S'<'
p799
NNNI-1
I-1
I0
tp800
bI00
g3
tp801
bsS'camsys'
p802
(lp803
g3
asS'natmag'
p804
g56
(g57
(I0
tp805
g59
tp806
Rp807
(I1
(I0
tp808
g798
I00
g3
tp809
bsg96
g56
(g57
(I0
tp810
g59
tp811
Rp812
(I1
(I0
tp813
g798
I00
g3
tp814
bsS'extmag'
p815
g56
(g57
(I0
tp816
g59
tp817
Rp818
(I1
(I0
tp819
g798
I00
g3
tp820
bsg98
g56
(g57
(I0
tp821
g59
tp822
Rp823
(I1
(I0
tp824
g798
I00
g3
tp825
bssg187
(dp826
g94
g56
(g57
(I0
tp827
g59
tp828
Rp829
(I1
(I0
tp830
g798
I00
g3
tp831
bsg802
(lp832
g3
asg804
g56
(g57
(I0
tp833
g59
tp834
Rp835
(I1
(I0
tp836
g798
I00
g3
tp837
bsg96
g56
(g57
(I0
tp838
g59
tp839
Rp840
(I1
(I0
tp841
g798
I00
g3
tp842
bsg815
g56
(g57
(I0
tp843
g59
tp844
Rp845
(I1
(I0
tp846
g798
I00
g3
tp847
bsg98
g56
(g57
(I0
tp848
g59
tp849
Rp850
(I1
(I0
tp851
g798
I00
g3
tp852
bssg188
(dp853
g94
g56
(g57
(I0
tp854
g59
tp855
Rp856
(I1
(I0
tp857
g798
I00
g3
tp858
bsg802
(lp859
g3
asg804
g56
(g57
(I0
tp860
g59
tp861
Rp862
(I1
(I0
tp863
g798
I00
g3
tp864
bsg96
g56
(g57
(I0
tp865
g59
tp866
Rp867
(I1
(I0
tp868
g798
I00
g3
tp869
bsg815
g56
(g57
(I0
tp870
g59
tp871
Rp872
(I1
(I0
tp873
g798
I00
g3
tp874
bsg98
g56
(g57
(I0
tp875
g59
tp876
Rp877
(I1
(I0
tp878
g798
I00
g3
tp879
bssg189
(dp880
g94
g56
(g57
(I0
tp881
g59
tp882
Rp883
(I1
(I0
tp884
g798
I00
g3
tp885
bsg802
(lp886
g3
asg804
g56
(g57
(I0
tp887
g59
tp888
Rp889
(I1
(I0
tp890
g798
I00
g3
tp891
bsg96
g56
(g57
(I0
tp892
g59
tp893
Rp894
(I1
(I0
tp895
g798
I00
g3
tp896
bsg815
g56
(g57
(I0
tp897
g59
tp898
Rp899
(I1
(I0
tp900
g798
I00
g3
tp901
bsg98
g56
(g57
(I0
tp902
g59
tp903
Rp904
(I1
(I0
tp905
g798
I00
g3
tp906
bssg190
(dp907
g94
g56
(g57
(I0
tp908
g59
tp909
Rp910
(I1
(I0
tp911
g798
I00
g3
tp912
bsg802
(lp913
g3
asg804
g56
(g57
(I0
tp914
g59
tp915
Rp916
(I1
(I0
tp917
g798
I00
g3
tp918
bsg96
g56
(g57
(I0
tp919
g59
tp920
Rp921
(I1
(I0
tp922
g798
I00
g3
tp923
bsg815
g56
(g57
(I0
tp924
g59
tp925
Rp926
(I1
(I0
tp927
g798
I00
g3
tp928
bsg98
g56
(g57
(I0
tp929
g59
tp930
Rp931
(I1
(I0
tp932
g798
I00
g3
tp933
bssg191
(dp934
g94
g56
(g57
(I0
tp935
g59
tp936
Rp937
(I1
(I0
tp938
g798
I00
g3
tp939
bsg802
(lp940
g3
asg804
g56
(g57
(I0
tp941
g59
tp942
Rp943
(I1
(I0
tp944
g798
I00
g3
tp945
bsg96
g56
(g57
(I0
tp946
g59
tp947
Rp948
(I1
(I0
tp949
g798
I00
g3
tp950
bsg815
g56
(g57
(I0
tp951
g59
tp952
Rp953
(I1
(I0
tp954
g798
I00
g3
tp955
bsg98
g56
(g57
(I0
tp956
g59
tp957
Rp958
(I1
(I0
tp959
g798
I00
g3
tp960
bssg192
(dp961
g94
g56
(g57
(I0
tp962
g59
tp963
Rp964
(I1
(I0
tp965
g798
I00
g3
tp966
bsg802
(lp967
g3
asg804
g56
(g57
(I0
tp968
g59
tp969
Rp970
(I1
(I0
tp971
g798
I00
g3
tp972
bsg96
g56
(g57
(I0
tp973
g59
tp974
Rp975
(I1
(I0
tp976
g798
I00
g3
tp977
bsg815
g56
(g57
(I0
tp978
g59
tp979
Rp980
(I1
(I0
tp981
g798
I00
g3
tp982
bsg98
g56
(g57
(I0
tp983
g59
tp984
Rp985
(I1
(I0
tp986
g798
I00
g3
tp987
bssg193
(dp988
g94
g56
(g57
(I0
tp989
g59
tp990
Rp991
(I1
(I0
tp992
g798
I00
g3
tp993
bsg802
(lp994
g3
asg804
g56
(g57
(I0
tp995
g59
tp996
Rp997
(I1
(I0
tp998
g798
I00
g3
tp999
bsg96
g56
(g57
(I0
tp1000
g59
tp1001
Rp1002
(I1
(I0
tp1003
g798
I00
g3
tp1004
bsg815
g56
(g57
(I0
tp1005
g59
tp1006
Rp1007
(I1
(I0
tp1008
g798
I00
g3
tp1009
bsg98
g56
(g57
(I0
tp1010
g59
tp1011
Rp1012
(I1
(I0
tp1013
g798
I00
g3
tp1014
bssg194
(dp1015
g94
g56
(g57
(I0
tp1016
g59
tp1017
Rp1018
(I1
(I0
tp1019
g798
I00
g3
tp1020
bsg802
(lp1021
g3
asg804
g56
(g57
(I0
tp1022
g59
tp1023
Rp1024
(I1
(I0
tp1025
g798
I00
g3
tp1026
bsg96
g56
(g57
(I0
tp1027
g59
tp1028
Rp1029
(I1
(I0
tp1030
g798
I00
g3
tp1031
bsg815
g56
(g57
(I0
tp1032
g59
tp1033
Rp1034
(I1
(I0
tp1035
g798
I00
g3
tp1036
bsg98
g56
(g57
(I0
tp1037
g59
tp1038
Rp1039
(I1
(I0
tp1040
g798
I00
g3
tp1041
bssg195
(dp1042
g94
g56
(g57
(I0
tp1043
g59
tp1044
Rp1045
(I1
(I0
tp1046
g798
I00
g3
tp1047
bsg802
(lp1048
g3
asg804
g56
(g57
(I0
tp1049
g59
tp1050
Rp1051
(I1
(I0
tp1052
g798
I00
g3
tp1053
bsg96
g56
(g57
(I0
tp1054
g59
tp1055
Rp1056
(I1
(I0
tp1057
g798
I00
g3
tp1058
bsg815
g56
(g57
(I0
tp1059
g59
tp1060
Rp1061
(I1
(I0
tp1062
g798
I00
g3
tp1063
bsg98
g56
(g57
(I0
tp1064
g59
tp1065
Rp1066
(I1
(I0
tp1067
g798
I00
g3
tp1068
bssg196
(dp1069
g94
g56
(g57
(I0
tp1070
g59
tp1071
Rp1072
(I1
(I0
tp1073
g798
I00
g3
tp1074
bsg802
(lp1075
g3
asg804
g56
(g57
(I0
tp1076
g59
tp1077
Rp1078
(I1
(I0
tp1079
g798
I00
g3
tp1080
bsg96
g56
(g57
(I0
tp1081
g59
tp1082
Rp1083
(I1
(I0
tp1084
g798
I00
g3
tp1085
bsg815
g56
(g57
(I0
tp1086
g59
tp1087
Rp1088
(I1
(I0
tp1089
g798
I00
g3
tp1090
bsg98
g56
(g57
(I0
tp1091
g59
tp1092
Rp1093
(I1
(I0
tp1094
g798
I00
g3
tp1095
bsssb.