(isnclasses
mysn
p0
(dp1
S'camsystem'
p2
S''
p3
sS'dVmax'
p4
F0.0
sS'nomaxdate'
p5
I00
sS'maxcolors'
p6
(dp7
S'V-K'
p8
(dp9
S'color'
p10
Fnan
sS'epoch'
p11
F0.0
sS'dcolor'
p12
Fnan
ssS'V-H'
p13
(dp14
g10
Fnan
sg11
F0.0
sg12
Fnan
ssS'V-I'
p15
(dp16
g10
Fnan
sg11
F0.0
sg12
Fnan
ssS'R-I'
p17
(dp18
g10
Fnan
sg11
F0.0
sg12
Fnan
ssS'V-R'
p19
(dp20
g10
Fnan
sg11
F0.0
sg12
Fnan
ssS'V-i'
p21
(dp22
g10
Fnan
sg11
F0.0
sg12
Fnan
ssS'V-r'
p23
(dp24
g10
Fnan
sg11
F0.0
sg12
Fnan
ssS'B-J'
p25
(dp26
g10
Fnan
sg11
F0.0
sg12
Fnan
ssS'B-K'
p27
(dp28
g10
Fnan
sg11
F0.0
sg12
Fnan
ssS'B-H'
p29
(dp30
g10
Fnan
sg11
F0.0
sg12
Fnan
ssS'B-I'
p31
(dp32
g10
Fnan
sg11
F0.0
sg12
Fnan
ssS'B-R'
p33
(dp34
g10
Fnan
sg11
F0.0
sg12
Fnan
ssS'J-K'
p35
(dp36
g10
Fnan
sg11
F0.0
sg12
Fnan
ssS'B-V'
p37
(dp38
g10
Fnan
sg11
F0.0
sg12
Fnan
ssS'H-J'
p39
(dp40
g10
Fnan
sg11
F0.0
sg12
Fnan
ssS'H-K'
p41
(dp42
g10
Fnan
sg11
F0.0
sg12
Fnan
ssS'r-i'
p43
(dp44
g10
Fnan
sg11
F0.0
sg12
Fnan
ssS'I-H'
p45
(dp46
g10
Fnan
sg11
F0.0
sg12
Fnan
ssS'B-i'
p47
(dp48
g10
Fnan
sg11
F0.0
sg12
Fnan
ssS'B-r'
p49
(dp50
g10
Fnan
sg11
F0.0
sg12
Fnan
ssS'U-B'
p51
(dp52
g10
Fnan
sg11
F0.0
sg12
Fnan
ssS'r-K'
p53
(dp54
g10
Fnan
sg11
F0.0
sg12
Fnan
sssS'nirlc'
p55
cnumpy.core.multiarray
_reconstruct
p56
(cnumpy
ndarray
p57
(I0
tp58
S'b'
p59
tp60
Rp61
(I1
(I84
tp62
cnumpy
dtype
p63
(S'V13'
p64
I0
I1
tp65
Rp66
(I3
S'|'
p67
N(S'photcode'
p68
S'mjd'
p69
S'mag'
p70
S'dmag'
p71
tp72
(dp73
g69
(g63
(S'f4'
p74
I0
I1
tp75
Rp76
(I3
S'<'
p77
NNNI-1
I-1
I0
tp78
bI1
tp79
sg70
(g76
I5
tp80
sg68
(g63
(S'S1'
p81
I0
I1
tp82
Rp83
(I3
S'|'
p84
NNNI1
I1
I0
tp85
bI0
tp86
sg71
(g76
I9
tp87
sI13
I1
I16
tp88
bI00
S'JJ\xd0PGX9\x83A333>JT\xd5PGd;\x82A\x00\x00\x80>JM\xd6PGD\x8b\x83A\x7fj<=J=\xd7PG7\x89\x83A333>JR\xd8PG\x17\xd9\x82A333>J;\xd9PG\x1dZ\x85A\xe7\xfb\xa9=J=\xdaPG\xc1\xca\x84A\x8f\xc2u=Jn\xdbPG\xf2\xd2\x83A\x87\x16Y=J=\xdcPG\xe1z\x84A333>J6\xddPG\xfc\xa9\x84A\xecQ8=J8\xdePG#\xdb\x84A\xa6\x9b\xc4<J6\xdfPG\x1f\x85\x87A\x00\x00\x80>J6\xe0PG\xe1z\x85A\x00\x00\x80>J1\xe1PG7\x89\x86A\x00\x00\x80>J6\xe2PG\xcd\xcc\x85A\x00\x00\x80>J3\xe8PG\xf0\xa7\x87A333>J=\xeePG/\xdd\x86A333>J8\xefPG5^\x87AX94=J8\xf0PG\xbe\x9f\x87A\x00\x00\x80>J8\xf2PG\xcd\xcc\x88A#\xdb\xf9=JC\xf5PG`\xe5\x88A\x06\x81\x95=J8\xf6PG\x8d\x97\x89A333>J@\xf9PG\x98n\x88AX9\xb4=J8\xfaPG\x9a\x99\x89A\n\xd7\xa3=J8\xfePG\xa4p\x8bAh\x91\xed=J\x1f\x02QG\xc3\xf5\x8aA\xa6\x9b\xc4=J.\x05QG\xac\x1c\x8dA\xc5 \xb0>J1\x06QG\x96C\x8cAw\xbe\x1f=J.\x07QG\\\x8f\x8bA-\xb2\x9d>J)\tQG\xac\x1c\x8bA\xc7K7>J&\x12QG\xb0r\x8eA333>J$\x16QGb\x10\x8cA333>HJ\xd0PG\xbct{A\x7fj\xbc<HM\xd6PG\xf2\xd2}A333>H=\xd7PG\x85\xeb\x7fA\x00\x00\x80>HR\xd8PG)\\\x7fA333>H;\xd9PG\xc5 \x80A333>H=\xdaPGZd\x81A333>Hn\xdbPGj\xbc~A333>H=\xdcPGm\xe7\x7fA\x00\x00\x80>H6\xddPGb\x10\x80Ao\x12\x03=H8\xdePG\x87\x16\x81A\x00\x00\x80>H6\xdfPG\xf8S\x80A333>H6\xe0PG\xee|\x80A\x00\x00\x80>H1\xe1PG\xc9v\x80A\x00\x00\x80>H6\xe2PG\xd1"\x81A\x9a\x99\x99=H3\xe8PG\x93\x18\x82A\x00\x00\x80>H=\xeePGw\xbe\x80A\xc9v\xbe=H8\xefPG\xa4p\x81A\x1f\x85\xeb=H8\xf0PG\xd5x\x82A%\x06\x81=H6\xf1PG\xc9v\x83A\xf0\xa7\xc6=H8\xf2PGd;\x84Ash\x11>HC\xf5PG\xfe\xd4\x84A333>H8\xf6PG\xb8\x1e\x84A333>HC\xf7PG\xa0\x1a\x83A\x00\x00\x80>H@\xf9PG\xf4\xfd\x82A333>H8\xfaPGw\xbe\x83A\x9e\xef\xa7=H8\xfePG\x9e\xef\x85A\x00\x00\x80>H.\x05QG\x10X\x86A\xcd\xcc\xcc=H1\x06QG\xa2E\x84A333>H.\x07QG\xdfO\x87A\x83\xc0J>H)\tQG=\n\x87A\x96C\x8b>H&\x12QG\xf6(\x8aA333>H$\x16QG\x02+\x88A333>KM\xd6PG\xcd\xcc\x81A\x00\x00\x80>KR\xd8PGH\xe1\x81A\x00\x00\x80>K=\xdaPG\x91\xed\x83A\x00\x00\x80>Kn\xdbPG\xbaI\x81A\x00\x00\x80>K=\xdcPG\xa6\x9b\x85A\x00\x00\x80>K6\xddPG\x14\xae\x85A\x00\x00\x80>K8\xdePGD\x8b\x84A\x00\x00\x80>K6\xdfPG\xbe\x9f\x83A\x00\x00\x80>K6\xe0PG\x9e\xef\x84A\x00\x00\x80>K3\xe8PG\xb8\x1e\x86A\x00\x00\x80>K;\xeaPG\xac\x1c\x83A\x00\x00\x80>K=\xeePG\xcf\xf7\x85A\x00\x00\x80>K8\xefPG\x14\xae\x82A\x00\x00\x80>K8\xf0PGX9\x86A\x00\x00\x80>K8\xf2PG#\xdb\x83A\x00\x00\x80>KC\xf5PG\xd3M\x87A\x00\x00\x80>K@\xf9PG\x85\xeb\x87A\x00\x00\x80>K8\xfePG\xfe\xd4\x85A\x00\x00\x80>K.\x05QG\x9c\xc4\x84A\x00\x00\x80>K$\x16QGD\x8b\x8cA\x00\x00\x80>'
p89
tp90
bsS'colors'
p91
(dp92
g8
(dp93
S'mjd'
p94
(lp95
sS'dmag'
p96
(lp97
sS'mag'
p98
(lp99
ssg13
(dp100
g94
(lp101
sg96
(lp102
sg98
(lp103
ssg15
(dp104
g94
(lp105
sg96
(lp106
sg98
(lp107
ssg17
(dp108
g94
(lp109
sg96
(lp110
sg98
(lp111
ssg19
(dp112
g94
(lp113
sg96
(lp114
sg98
(lp115
ssg21
(dp116
g94
(lp117
sg96
(lp118
sg98
(lp119
ssg23
(dp120
g94
(lp121
sg96
(lp122
sg98
(lp123
ssg25
(dp124
g94
(lp125
sg96
(lp126
sg98
(lp127
ssg27
(dp128
g94
(lp129
sg96
(lp130
sg98
(lp131
ssg29
(dp132
g94
(lp133
sg96
(lp134
sg98
(lp135
ssg31
(dp136
g94
(lp137
sg96
(lp138
sg98
(lp139
ssg33
(dp140
g94
(lp141
sg96
(lp142
sg98
(lp143
ssg35
(dp144
g94
(lp145
sg96
(lp146
sg98
(lp147
ssg37
(dp148
g94
(lp149
sg96
(lp150
sg98
(lp151
ssg39
(dp152
g94
(lp153
sg96
(lp154
sg98
(lp155
ssg41
(dp156
g94
(lp157
sg96
(lp158
sg98
(lp159
ssg43
(dp160
g94
(lp161
sg96
(lp162
sg98
(lp163
ssg45
(dp164
g94
(lp165
sg96
(lp166
sg98
(lp167
ssg47
(dp168
g94
(lp169
sg96
(lp170
sg98
(lp171
ssg49
(dp172
g94
(lp173
sg96
(lp174
sg98
(lp175
ssg51
(dp176
g94
(lp177
sg96
(lp178
sg98
(lp179
ssg53
(dp180
g94
(lp181
sg96
(lp182
sg98
(lp183
sssS'filters'
p184
(dp185
S'B'
p186
I0
sS'I'
p187
I0
sS'H'
p188
I0
sS'K'
p189
I0
sS'J'
p190
I0
sS'i'
p191
I0
sS'R'
p192
I0
sS'u'
p193
I0
sS'V'
p194
I0
sS'U'
p195
I0
sS'r'
p196
I0
ssS'snnameshort'
p197
S'04gk'
p198
sS'templsol'
p199
(dp200
g186
Nsg187
Nsg188
Nsg189
Nsg190
Nsg191
Nsg192
Nsg193
Nsg194
Nsg195
Nsg196
NssS'Vmaxmag'
p201
F0.0
sS'Vmaxflag'
p202
I00
sS'stats'
p203
(dp204
g186
(isnclasses
snstats
p205
(dp206
S'polyrchisq'
p207
F0.0
sS'Rdm15'
p208
F0.0
sS'tlim'
p209
(lp210
F0.0
aF0.0
asS'maglim'
p211
(lp212
F0.0
aF0.0
asS'templresid'
p213
NsS'polyresid'
p214
NsS'dm15'
p215
F0.0
sS'polydeg'
p216
F0.0
sS'success'
p217
I0
sS'flagmiss15'
p218
I0
sS'flagmissmax'
p219
I0
sS'm15data'
p220
(lp221
F0.0
aF0.0
asS'band'
p222
g3
sS'templrchisq'
p223
F0.0
sS'flagbadfit'
p224
I0
sS'Rdm15lin'
p225
(lp226
F0.0
aF0.0
asS'templatefit'
p227
(dp228
S'stretch'
p229
F1.0
sS'yoffset'
p230
F0.0
sS'xoffset'
p231
F0.0
sS'xstretch'
p232
F1.0
ssS'dm15lin'
p233
(lp234
F0.0
aF0.0
asS'maxjd'
p235
(lp236
F0.0
aF0.0
asS'norm'
p237
F0.0
sg229
F0.0
sbsg187
(isnclasses
snstats
p238
(dp239
g207
F0.0
sg208
F0.0
sg209
(lp240
F0.0
aF0.0
asg211
(lp241
F0.0
aF0.0
asg213
Nsg214
Nsg215
F0.0
sg216
F0.0
sg217
I0
sg218
I0
sg219
I0
sg220
(lp242
F0.0
aF0.0
asg222
g3
sg223
F0.0
sg224
I0
sg225
(lp243
F0.0
aF0.0
asg227
(dp244
g229
F1.0
sg230
F0.0
sg231
F0.0
sg232
F1.0
ssg233
(lp245
F0.0
aF0.0
asg235
(lp246
F0.0
aF0.0
asg237
F0.0
sg229
F0.0
sbsg188
(isnclasses
snstats
p247
(dp248
g207
F0.0
sg208
F0.0
sg209
(lp249
F0.0
aF0.0
asg211
(lp250
F0.0
aF0.0
asg213
Nsg214
Nsg215
F0.0
sg216
F0.0
sg217
I0
sg218
I0
sg219
I0
sg220
(lp251
F0.0
aF0.0
asg222
g3
sg223
F0.0
sg224
I0
sg225
(lp252
F0.0
aF0.0
asg227
(dp253
g229
F1.0
sg230
F0.0
sg231
F0.0
sg232
F1.0
ssg233
(lp254
F0.0
aF0.0
asg235
(lp255
F0.0
aF0.0
asg237
F0.0
sg229
F0.0
sbsg189
(isnclasses
snstats
p256
(dp257
g207
F0.0
sg208
F0.0
sg209
(lp258
F0.0
aF0.0
asg211
(lp259
F0.0
aF0.0
asg213
Nsg214
Nsg215
F0.0
sg216
F0.0
sg217
I0
sg218
I0
sg219
I0
sg220
(lp260
F0.0
aF0.0
asg222
g3
sg223
F0.0
sg224
I0
sg225
(lp261
F0.0
aF0.0
asg227
(dp262
g229
F1.0
sg230
F0.0
sg231
F0.0
sg232
F1.0
ssg233
(lp263
F0.0
aF0.0
asg235
(lp264
F0.0
aF0.0
asg237
F0.0
sg229
F0.0
sbsg190
(isnclasses
snstats
p265
(dp266
g207
F0.0
sg208
F0.0
sg209
(lp267
F0.0
aF0.0
asg211
(lp268
F0.0
aF0.0
asg213
Nsg214
Nsg215
F0.0
sg216
F0.0
sg217
I0
sg218
I0
sg219
I0
sg220
(lp269
F0.0
aF0.0
asg222
g3
sg223
F0.0
sg224
I0
sg225
(lp270
F0.0
aF0.0
asg227
(dp271
g229
F1.0
sg230
F0.0
sg231
F0.0
sg232
F1.0
ssg233
(lp272
F0.0
aF0.0
asg235
(lp273
F0.0
aF0.0
asg237
F0.0
sg229
F0.0
sbsg191
(isnclasses
snstats
p274
(dp275
g207
F0.0
sg208
F0.0
sg209
(lp276
F0.0
aF0.0
asg211
(lp277
F0.0
aF0.0
asg213
Nsg214
Nsg215
F0.0
sg216
F0.0
sg217
I0
sg218
I0
sg219
I0
sg220
(lp278
F0.0
aF0.0
asg222
g3
sg223
F0.0
sg224
I0
sg225
(lp279
F0.0
aF0.0
asg227
(dp280
g229
F1.0
sg230
F0.0
sg231
F0.0
sg232
F1.0
ssg233
(lp281
F0.0
aF0.0
asg235
(lp282
F0.0
aF0.0
asg237
F0.0
sg229
F0.0
sbsg192
(isnclasses
snstats
p283
(dp284
g207
F0.0
sg208
F0.0
sg209
(lp285
F0.0
aF0.0
asg211
(lp286
F0.0
aF0.0
asg213
Nsg214
Nsg215
F0.0
sg216
F0.0
sg217
I0
sg218
I0
sg219
I0
sg220
(lp287
F0.0
aF0.0
asg222
g3
sg223
F0.0
sg224
I0
sg225
(lp288
F0.0
aF0.0
asg227
(dp289
g229
F1.0
sg230
F0.0
sg231
F0.0
sg232
F1.0
ssg233
(lp290
F0.0
aF0.0
asg235
(lp291
F0.0
aF0.0
asg237
F0.0
sg229
F0.0
sbsg193
(isnclasses
snstats
p292
(dp293
g207
F0.0
sg208
F0.0
sg209
(lp294
F0.0
aF0.0
asg211
(lp295
F0.0
aF0.0
asg213
Nsg214
Nsg215
F0.0
sg216
F0.0
sg217
I0
sg218
I0
sg219
I0
sg220
(lp296
F0.0
aF0.0
asg222
g3
sg223
F0.0
sg224
I0
sg225
(lp297
F0.0
aF0.0
asg227
(dp298
g229
F1.0
sg230
F0.0
sg231
F0.0
sg232
F1.0
ssg233
(lp299
F0.0
aF0.0
asg235
(lp300
F0.0
aF0.0
asg237
F0.0
sg229
F0.0
sbsg194
(isnclasses
snstats
p301
(dp302
g207
F0.0
sg208
F0.0
sg209
(lp303
F0.0
aF0.0
asg211
(lp304
F0.0
aF0.0
asg213
Nsg214
Nsg215
F0.0
sg216
F0.0
sg217
I0
sg218
I0
sg219
I0
sg220
(lp305
F0.0
aF0.0
asg222
g3
sg223
F0.0
sg224
I0
sg225
(lp306
F0.0
aF0.0
asg227
(dp307
g229
F1.0
sg230
F0.0
sg231
F0.0
sg232
F1.0
ssg233
(lp308
F0.0
aF0.0
asg235
(lp309
F0.0
aF0.0
asg237
F0.0
sg229
F0.0
sbsg195
(isnclasses
snstats
p310
(dp311
g207
F0.0
sg208
F0.0
sg209
(lp312
F0.0
aF0.0
asg211
(lp313
F0.0
aF0.0
asg213
Nsg214
Nsg215
F0.0
sg216
F0.0
sg217
I0
sg218
I0
sg219
I0
sg220
(lp314
F0.0
aF0.0
asg222
g3
sg223
F0.0
sg224
I0
sg225
(lp315
F0.0
aF0.0
asg227
(dp316
g229
F1.0
sg230
F0.0
sg231
F0.0
sg232
F1.0
ssg233
(lp317
F0.0
aF0.0
asg235
(lp318
F0.0
aF0.0
asg237
F0.0
sg229
F0.0
sbsg196
(isnclasses
snstats
p319
(dp320
g207
F0.0
sg208
F0.0
sg209
(lp321
F0.0
aF0.0
asg211
(lp322
F0.0
aF0.0
asg213
Nsg214
Nsg215
F0.0
sg216
F0.0
sg217
I0
sg218
I0
sg219
I0
sg220
(lp323
F0.0
aF0.0
asg222
g3
sg223
F0.0
sg224
I0
sg225
(lp324
F0.0
aF0.0
asg227
(dp325
g229
F1.0
sg230
F0.0
sg231
F0.0
sg232
F1.0
ssg233
(lp326
F0.0
aF0.0
asg235
(lp327
F0.0
aF0.0
asg237
F0.0
sg229
F0.0
sbssS'lc'
p328
(dp329
g94
g56
(g57
(I0
tp330
g59
tp331
Rp332
(I1
(I211
tp333
g76
I00
S'\x89ZPG\x8aZPG\x88dPG\x8adPG\x85ePG\x84fPG\x89fPG\x81iPG\x8anPG\x8cnPGr\x80PG\x7f\x82PG\x81\x83PGz\x84PG\x80\x87PG{\x8bPGs\xbePGJ\xd5PGm\xe2PGJ\xf4PGY\xfcPG@\x18QG\x88ZPG\x89ZPG\x87dPG\x8adPG\x85ePG\x83fPG\x89fPG\x85hPG\x80iPGmjPG{mPG\x8anPG\x8cnPGr\x80PG~\x82PG\x7f\x83PG{\x84PG\x7f\x87PGy\x8bPGm\x8dPGQ\xa2PGr\xbePGS\xd3PGI\xd5PGl\xe2PGL\xe5PGG\xf4PGQ\xf6PGP\xf9PGW\xfcPG>\x18QG\x88ZPG\x8aZPG\x88dPG\x85ePG\x83fPG\x85hPG\x81iPGmjPGymPG{mPG\x89nPG\x8bnPGr\x80PG~\x82PG\x80\x83PGy\x84PG\x7f\x87PGn\x8dPGR\xa2PGr\xbePGT\xd3PGJ\xd5PGU\xddPGc\xe0PG\\\xe1PGk\xe2PGM\xe4PGL\xe5PG3\xe7PGE\xefPGF\xf4PGP\xf6PGO\xf9PGX\xfcPG1\x13QG?\x18QG.*QG\x88ZPG\x8aZPG\x88dPG\x8adPG\x85ePG\x84fPG\x85hPG\x81iPGmjPGzmPG|mPG\x89nPGr\x80PG\x7f\x82PG\x80\x83PGy\x84PG\x80\x87PGz\x8bPGR\xa2PGs\xbePGT\xd3PG]\xe1PGk\xe2PGM\xe4PGL\xe5PG3\xe7PGB\xe8PGA\xefPGE\xefPGG\xf4PGP\xf6PGO\xf9PGX\xfcPG:\x0cQG1\x13QG?\x18QG.*QGJ\xd0PGT\xd5PGM\xd6PG=\xd7PGR\xd8PG;\xd9PG=\xdaPGn\xdbPG=\xdcPG6\xddPG8\xdePG6\xdfPG6\xe0PG1\xe1PG6\xe2PG3\xe8PG=\xeePG8\xefPG8\xf0PG8\xf2PGC\xf5PG8\xf6PG@\xf9PG8\xfaPG8\xfePG\x1f\x02QG.\x05QG1\x06QG.\x07QG)\tQG&\x12QG$\x16QGJ\xd0PGM\xd6PG=\xd7PGR\xd8PG;\xd9PG=\xdaPGn\xdbPG=\xdcPG6\xddPG8\xdePG6\xdfPG6\xe0PG1\xe1PG6\xe2PG3\xe8PG=\xeePG8\xefPG8\xf0PG6\xf1PG8\xf2PGC\xf5PG8\xf6PGC\xf7PG@\xf9PG8\xfaPG8\xfePG.\x05QG1\x06QG.\x07QG)\tQG&\x12QG$\x16QGM\xd6PGR\xd8PG=\xdaPGn\xdbPG=\xdcPG6\xddPG8\xdePG6\xdfPG6\xe0PG3\xe8PG;\xeaPG=\xeePG8\xefPG8\xf0PG8\xf2PGC\xf5PG@\xf9PG8\xfePG.\x05QG$\x16QG'
p334
tp335
bsS'ccmag'
p336
g56
(g57
(I0
tp337
g59
tp338
Rp339
(I1
(I211
tp340
g76
I00
S'\x89AlA\x04VlA\xd5x{AH\xe1zA5^|A\x96C}A\xf8S}Ad;\x80A\x8d\x97\x82A\x08\xac\x81A\n\xd7\x83A\xcf\xf7\x83Ay\xe9\x83A\xf4\xfd\x83A{\x14\x84A\xbaI\x84A?5\x88A\xd3M\x8aA\xdfO\x8cAR\xb8\x8eA\xc3\xf5\x8fAsh\x94A\xf2\xd2_A\xd5x_A-\xb2gA\xb6\xf3gA\x9c\xc4hA\x14\xaeiA\xcb\xa1iA\x0c\x02kA\xe7\xfbkA\xb4\xc8lA\x91\xednA\xfc\xa9oA\xee|oA\xf4\xfdtA?5vA\xb4\xc8vAj\xbcvA\xb8\x1ewA\xf2\xd2wA\xbctwA\xb6\xf3{A\x1b/\x81A;\xdf\x83A\xdfO\x84A\x1b/\x86A\'1\x87A\xd3M\x89A\xf0\xa7\x89A\xf6(\x8aA\xd7\xa3\x8aA\xaa\xf1\x8eA\xaeG]AB`]A}?cA\x93\x18dAh\x91eA\x96CgA\x06\x81gAZdgAZdiAB`iA\xb6\xf3iA1\x08jA\x8d\x97pAB`qA;\xdfqA\xf2\xd2qA\x7fjrA\x19\x04tAffxA\xbct\x7fA5^\x82Aj\xbc\x82A!\xb0\x84A-\xb2\x84A\xaeG\x84AB`\x84Aw\xbe\x84A\xf0\xa7\x84Ay\xe9\x85A\xb8\x1e\x86A\x14\xae\x86A{\x14\x87A\x93\x18\x88A;\xdf\x87A\xa2E\x8bAj\xbc\x8bAq=\x90A\x02+]A\x10X]A\x89AbA5^bA\xfe\xd4bAR\xb8dAu\x93dA\n\xd7eA\x81\x95eAZdgA\xb2\x9dgA\xe7\xfbgAL7mA\x06\x81oA\x1dZpA\x8f\xc2oA\xd7\xa3pA\x02+qAL7wA\xdfO\x80A\x91\xed\x82A\xe1z\x85A\x7fj\x86A\xc5 \x86A\xd3M\x86A\x85\xeb\x86A\xb0r\x87A\x14\xae\x88A^\xba\x87A9\xb4\x88AZd\x89A\x00\x00\x89A\xa0\x1a\x89A{\x14\x8bA\xa0\x1a\x8cA\x9a\x99\x8dA\x89A\x93AX9\x83Ad;\x82AD\x8b\x83A7\x89\x83A\x17\xd9\x82A\x1dZ\x85A\xc1\xca\x84A\xf2\xd2\x83A\xe1z\x84A\xfc\xa9\x84A#\xdb\x84A\x1f\x85\x87A\xe1z\x85A7\x89\x86A\xcd\xcc\x85A\xf0\xa7\x87A/\xdd\x86A5^\x87A\xbe\x9f\x87A\xcd\xcc\x88A`\xe5\x88A\x8d\x97\x89A\x98n\x88A\x9a\x99\x89A\xa4p\x8bA\xc3\xf5\x8aA\xac\x1c\x8dA\x96C\x8cA\\\x8f\x8bA\xac\x1c\x8bA\xb0r\x8eAb\x10\x8cA\xbct{A\xf2\xd2}A\x85\xeb\x7fA)\\\x7fA\xc5 \x80AZd\x81Aj\xbc~Am\xe7\x7fAb\x10\x80A\x87\x16\x81A\xf8S\x80A\xee|\x80A\xc9v\x80A\xd1"\x81A\x93\x18\x82Aw\xbe\x80A\xa4p\x81A\xd5x\x82A\xc9v\x83Ad;\x84A\xfe\xd4\x84A\xb8\x1e\x84A\xa0\x1a\x83A\xf4\xfd\x82Aw\xbe\x83A\x9e\xef\x85A\x10X\x86A\xa2E\x84A\xdfO\x87A=\n\x87A\xf6(\x8aA\x02+\x88A\xcd\xcc\x81AH\xe1\x81A\x91\xed\x83A\xbaI\x81A\xa6\x9b\x85A\x14\xae\x85AD\x8b\x84A\xbe\x9f\x83A\x9e\xef\x84A\xb8\x1e\x86A\xac\x1c\x83A\xcf\xf7\x85A\x14\xae\x82AX9\x86A#\xdb\x83A\xd3M\x87A\x85\xeb\x87A\xfe\xd4\x85A\x9c\xc4\x84AD\x8b\x8cA'
p341
tp342
bsg98
g56
(g57
(I0
tp343
g59
tp344
Rp345
(I1
(I211
tp346
g76
I00
S'\xd5xkA7\x89kA\x89AzA^\xbayA\xe9&{AJ\x0c|A\xac\x1c|A33\x7fAy\xe9\x81A{\x14\x81A\x96C\x83A\x7fj\x83AB`\x83A\xbct\x83AP\x8d\x83A\x9c\xc4\x83A\xa8\xc6\x87A\x9e\xef\x89A\x9e\xef\x8bAZd\x8eA\xcb\xa1\x8fAo\x12\x94A\x89A`Am\xe7_A\x1dZhA\xa6\x9bhA\xa4piANbjA\x04VjA^\xbakA9\xb4lA\x06\x81mA\xe3\xa5oANbpA?5pA\xcb\xa1uA\xe5\xd0vAB`wA\xf8SwAF\xb6wA\x7fjxAJ\x0cxA+\x87|A\x8bl\x81A{\x14\x84A\x12\x83\x84AZd\x86AB`\x87A\xee|\x89A\n\xd7\x89A\x10X\x8aA\xf2\xd2\x8aA\xc5 \x8fAh\x91]A\xfc\xa9]AP\x8dcA\x98ndA\x00\x00fA^\xbagAm\xe7gA-\xb2gAF\xb6iA\x14\xaeiA\x89AjA\x04VjA`\xe5pA\x9a\x99qA\x93\x18rA1\x08rA\xf0\xa7rA\x1dZtAR\xb8xA^\xba\x7fA\xc9v\x82A\xe5\xd0\x82A/\xdd\x84A\n\xd7\x84A5^\x84A\xa4p\x84A\x8f\xc2\x84A\xcb\xa1\x84A\x9e\xef\x85Ao\x12\x86A\xe3\xa5\x86AV\x0e\x87A\xb8\x1e\x88A\xf2\xd2\x87A?5\x8bA\xe3\xa5\x8bA\xaeG\x90Ah\x91]Aw\xbe]A\x9c\xc4bA`\xe5bA)\\cA\xdfOeA\xd1"eA\x7fjfA\xac\x1cfA\x85\xebgA\xdd$hA\x12\x83hA\xcb\xa1mA\x85\xeboA\x9c\xc4pA\xdd$pAV\x0eqA\x81\x95qA\xfc\xa9wAP\x8d\x80A\xc5 \x83A-\xb2\x85A\xf0\xa7\x86A\xdfO\x86A\xd5x\x86A{\x14\x87A\xb2\x9d\x87A/\xdd\x88AH\xe1\x87AT\xe3\x88A\x8d\x97\x89A\xf6(\x89A}?\x89A\'1\x8bAd;\x8cA\x83\xc0\x8dA\xe1z\x93AX9\x83Ad;\x82AD\x8b\x83A7\x89\x83A\x17\xd9\x82A\x1dZ\x85A\xc1\xca\x84A\xf2\xd2\x83A\xe1z\x84A\xfc\xa9\x84A#\xdb\x84A\x1f\x85\x87A\xe1z\x85A7\x89\x86A\xcd\xcc\x85A\xf0\xa7\x87A/\xdd\x86A5^\x87A\xbe\x9f\x87A\xcd\xcc\x88A`\xe5\x88A\x8d\x97\x89A\x98n\x88A\x9a\x99\x89A\xa4p\x8bA\xc3\xf5\x8aA\xac\x1c\x8dA\x96C\x8cA\\\x8f\x8bA\xac\x1c\x8bA\xb0r\x8eAb\x10\x8cA\xbct{A\xf2\xd2}A\x85\xeb\x7fA)\\\x7fA\xc5 \x80AZd\x81Aj\xbc~Am\xe7\x7fAb\x10\x80A\x87\x16\x81A\xf8S\x80A\xee|\x80A\xc9v\x80A\xd1"\x81A\x93\x18\x82Aw\xbe\x80A\xa4p\x81A\xd5x\x82A\xc9v\x83Ad;\x84A\xfe\xd4\x84A\xb8\x1e\x84A\xa0\x1a\x83A\xf4\xfd\x82Aw\xbe\x83A\x9e\xef\x85A\x10X\x86A\xa2E\x84A\xdfO\x87A=\n\x87A\xf6(\x8aA\x02+\x88A\xcd\xcc\x81AH\xe1\x81A\x91\xed\x83A\xbaI\x81A\xa6\x9b\x85A\x14\xae\x85AD\x8b\x84A\xbe\x9f\x83A\x9e\xef\x84A\xb8\x1e\x86A\xac\x1c\x83A\xcf\xf7\x85A\x14\xae\x82AX9\x86A#\xdb\x83A\xd3M\x87A\x85\xeb\x87A\xfe\xd4\x85A\x9c\xc4\x84AD\x8b\x8cA'
p347
tp348
bsS'photcode'
p349
g56
(g57
(I0
tp350
g59
tp351
Rp352
(I1
(I211
tp353
g63
(S'S2'
p354
I0
I1
tp355
Rp356
(I3
S'|'
p357
NNNI2
I1
I0
tp358
bI00
S'02020202020202020202020202020202020202020202030303030303030303030303030303030303030303030303030303030303031313131313131313131313131313131313131313131313131313131313131313131313131314141414141414141414141414141414141414141414141414141414141414141414141414J\x00J\x00J\x00J\x00J\x00J\x00J\x00J\x00J\x00J\x00J\x00J\x00J\x00J\x00J\x00J\x00J\x00J\x00J\x00J\x00J\x00J\x00J\x00J\x00J\x00J\x00J\x00J\x00J\x00J\x00J\x00J\x00H\x00H\x00H\x00H\x00H\x00H\x00H\x00H\x00H\x00H\x00H\x00H\x00H\x00H\x00H\x00H\x00H\x00H\x00H\x00H\x00H\x00H\x00H\x00H\x00H\x00H\x00H\x00H\x00H\x00H\x00H\x00H\x00K\x00K\x00K\x00K\x00K\x00K\x00K\x00K\x00K\x00K\x00K\x00K\x00K\x00K\x00K\x00K\x00K\x00K\x00K\x00K\x00'
p359
tp360
bsg96
g56
(g57
(I0
tp361
g59
tp362
Rp363
(I1
(I211
tp364
g76
I00
S'\x1b/]=\x87\x16Y=\xf4\xfd\xd4<\x7fj\xbc<\xe3\xa5\x9b<\xa6\x9b\xc4<\xa6\x9b\xc4<1\x08\xac<X9\xb4<\n\xd7\xa3<\xe3\xa5\x9b<\x7fj\xbc<\x7fj\xbc<1\x08\xac<X9\xb4<\x1b/\xdd<\n\xd7\xa3<1\x08\xac<\xa6\x9b\xc4<\xa6\x9b\xc4<\x1b/\xdd<\x1b/\xdd<\x96C\x8b<\xe3\xa5\x9b<X9\xb4<X9\xb4<\x96C\x8b<X9\xb4<\x7fj\xbc<\x1b/\xdd<\xf4\xfd\xd4<X9\xb4<\xbct\x93<B`e<\x8f\xc2u<\xe3\xa5\x9b<X9\xb4<\x7fj\xbc<\xcd\xcc\xcc<\x7fj\xbc<\n\xd7\xa3<\xf4\xfdT<\x8f\xc2u<\xe3\xa5\x9b<o\x12\x83<\xbct\x93<\xbct\x93<1\x08\xac<\n\xd7\xa3<\n\xd7\xa3<X9\xb4<\n\xd7\xa3<\x7fj\xbc<\xe3\xa5\x9b<\xbct\x93<\x7fj\xbc<o\x12\x83<h\x91\xed<\x02+\x07=)\\\x0f=X9\xb4<\x1b/\xdd<\n\xd7\xa3<\x8f\xc2u<B`e<\xbct\x93<\n\xd7\xa3<\x7fj\xbc<\xe3\xa5\x9b<\n\xd7\xa3<\x8f\xc2u<\xe3\xa5\x9b<\xe3\xa5\x9b<o\x12\x83<o\x12\x83<\x1b/\xdd<\xf4\xfd\xd4<X9\xb4<\x96C\x8b<\xe3\xa5\x9b<\xf4\xfd\xd4<\xa6\x9b\xc4<\x7fj\xbc<\xbct\x93<\n\xd7\xa3<\x7fj\xbc<\x96C\x8b<1\x08\xac<X9\xb4<\xf4\xfd\xd4<\n\xd7\xa3<\xbct\x93<B`\xe5<\xcd\xcc\xcc<\xe3\xa5\x9b<\x8f\xc2\xf5<\xb6\xf3\xfd<\xa6\x9b\xc4<\x7fj\xbc<\xe3\xa5\x9b<\x96C\x8b<o\x12\x83<\x7fj\xbc<\x7fj\xbc<\x7fj\xbc<X9\xb4<\x7fj\xbc<)\\\x0f=\xbct\x93<\x1b/\xdd<\xe3\xa5\x9b<\xa6\x9b\xc4<\xa6\x9b\xc4<\xf4\xfd\xd4<\x1b/\xdd<\x1b/\xdd<\x8f\xc2\xf5<\x02+\x07=h\x91\xed<X9\xb4<1\x08\xac<\xcd\xcc\xcc<\xbct\x13=P\x8d\x17=\x8f\xc2\xf5<h\x91\xed<\xb6\xf3\xfd<333>\x00\x00\x80>\x7fj<=333>333>\xe7\xfb\xa9=\x8f\xc2u=\x87\x16Y=333>\xecQ8=\xa6\x9b\xc4<\x00\x00\x80>\x00\x00\x80>\x00\x00\x80>\x00\x00\x80>333>333>X94=\x00\x00\x80>#\xdb\xf9=\x06\x81\x95=333>X9\xb4=\n\xd7\xa3=h\x91\xed=\xa6\x9b\xc4=\xc5 \xb0>w\xbe\x1f=-\xb2\x9d>\xc7K7>333>333>\x7fj\xbc<333>\x00\x00\x80>333>333>333>333>\x00\x00\x80>o\x12\x03=\x00\x00\x80>333>\x00\x00\x80>\x00\x00\x80>\x9a\x99\x99=\x00\x00\x80>\xc9v\xbe=\x1f\x85\xeb=%\x06\x81=\xf0\xa7\xc6=sh\x11>333>333>\x00\x00\x80>333>\x9e\xef\xa7=\x00\x00\x80>\xcd\xcc\xcc=333>\x83\xc0J>\x96C\x8b>333>333>\x00\x00\x80>\x00\x00\x80>\x00\x00\x80>\x00\x00\x80>\x00\x00\x80>\x00\x00\x80>\x00\x00\x80>\x00\x00\x80>\x00\x00\x80>\x00\x00\x80>\x00\x00\x80>\x00\x00\x80>\x00\x00\x80>\x00\x00\x80>\x00\x00\x80>\x00\x00\x80>\x00\x00\x80>\x00\x00\x80>\x00\x00\x80>\x00\x00\x80>'
p365
tp366
bssS'Vmag'
p367
NsS'Rmax'
p368
(dp369
sS'polyfit'
p370
NsS'ebmvtot'
p371
F0.0
sS'Vmax'
p372
F0.0
sS'type'
p373
S'Ic'
p374
sS'metadata'
p375
(dp376
g3
S'0.392'
p377
sS'cfaUmaxerr'
p378
S'-'
p379
sS'v2 Fe II 5169 date'
p380
g379
sS'D11Rmax'
p381
g3
sS'v_z'
p382
S'-122'
p383
sS'E(b-v)hosterr'
p384
S'>'
p385
sS'v1 Fe II 5018 date'
p386
g379
sS'cfaRmaxerr'
p387
g379
sS'CfA RJD bootstrap'
p388
S'<0000000'
p389
sS'inclination from axes sdss'
p390
S'85'
p391
sS'my E(B-V)host from inclination'
p392
S'0.387403729486054'
p393
sS'RA'
p394
S'12:25:33'
p395
sS'cfaVmaxerr'
p396
g379
sS'Dm15 (with Lyman BC correction)'
p397
g3
sS'CfA E(B-V)host'
p398
g3
sS'lcvquality'
p399
S'2'
p400
sS'v1 Fe II 5169 '
p401
g379
sS'decdeg'
p402
S'12.2610833333'
p403
sS'cfaVmax'
p404
g379
sS'CfA VJD bootstrap error'
p405
S'--'
p406
sS'MaxVJD'
p407
S'<2453338.5'
p408
sS'D11Vmaxdate'
p409
g3
sS'v1 Fe II 5018 '
p410
g379
sS'D11Rmaxdate'
p411
g3
sS'D11Rmaxerr'
p412
g3
sS'Fe II 5169 at maximum (linear interpolation error)'
p413
S'#VALUE!'
p414
sS'D11Vmaxerr'
p415
g3
sS'axis ratio sdss'
p416
S'0.141'
p417
sS'D11Rmaxdateerr'
p418
g3
sS'v2 FeII 5018 date'
p419
g379
sS'DEC'
p420
S'+12:15:39.9'
p421
sS'Type'
p422
g374
sS'cfaJmaxerr'
p423
S'0.12'
p424
sS'SNname'
p425
S'sn2004gk'
p426
sS'Fe II 5169 at maximum (linear interpolation)'
p427
g379
sS'inclination'
p428
S'90'
p429
sS'cfaHmaxerr'
p430
g379
sS'DFS E(B-V)'
p431
S'0.0287'
p432
sS'image subtraction needed'
p433
S'?'
p434
sS'CfA BJD bootstrap'
p435
S'<0000000'
p436
sS'v1 Fe II 5169 date'
p437
g379
sS' CfA E(B-V)hosterr'
p438
g3
sS'v2 Fe II 5018'
p439
g379
sS'P13 UV data'
p440
S'0'
p441
sS'cfaHmax'
p442
g379
sS'v2 Fe II 5169 error'
p443
g379
sS'CfA IJD bootstrap'
p444
S'<0000000'
p445
sS'cfaKmax'
p446
g379
sS'comment'
p447
S';D11nomax ;hostgal ex.;0.100  from tully fisher: mu=31; from LEDA m_B and mu --> M_B=-17.6 mag (dwarf? classification is edge-on Spiral of Sc class)  --BIG PROBLEM FOR DATE OF MAX: if similar to 94I, then date of Vmax was on ~Nov 17'
p448
sS'dVJD CfA bootstrap'
p449
S'#VALUE!'
p450
sS'radeg'
p451
S'186.3875'
p452
sS'distance Mpc'
p453
S'2.6'
p454
sS'inclination error'
p455
S'(+0,-0)'
p456
sS'PAIRITEL'
p457
S'Y'
p458
sS'cfaImax'
p459
g379
sS'Fe II 5169 new'
p460
g3
sS'cfaBmaxerr'
p461
g379
sS'v2 Fe II 5018 error'
p462
g379
sS'E(b-v)host'
p463
S'0.03'
p464
sS'CfA photometric quality (1best, 3 worst)'
p465
g400
sS'inclination/E(B-V) ref'
p466
S'D11/D11'
p467
sS'cfaBmax'
p468
g379
sS'CfA IJD error'
p469
S'<0000000'
p470
sS'D11Vmaxdateerr'
p471
g3
sS'CfA dm15'
p472
S'-0.526'
p473
sS'Fe II 5018 at maximum (linear interpolation)'
p474
g379
sS'CfA BJD error'
p475
S'<0000000'
p476
sS'earliestV'
p477
S'2453339.031'
p478
sS'inclination from leida'
p479
S'--'
p480
sS'CfA dm15 linear'
p481
S'-0.616'
p482
sS'z'
p483
S'-0.000407'
p484
sS'cfaImaxerr'
p485
g379
sS'cfaJmax'
p486
S'16.39'
p487
sS'max_ref'
p488
S'CfA'
p489
sS'v2 Fe II 5169'
p490
g379
sS'FeII51691or2'
p491
S'#DIV/0!'
p492
sS'CfA VJD bootstrap'
p493
S'<2453339.03'
p494
sS'v1 Fe II 5018 error'
p495
g379
sS'MaxVdate'
p496
S'<20041128'
p497
sS'z_ref'
p498
S'NED'
p499
sS'D11Vmax'
p500
g3
sS'distanced11'
p501
S'17'
p502
sS'separation '
p503
g379
sS'hostgal'
p504
S'IC3311'
p505
sS'E(B-V)'
p506
S'0.03'
p507
sS'inclination from axes'
p508
S'85.2154075817785'
p509
sS'CfA RJD error'
p510
S'<0000000'
p511
sS'cfaKmaxerr'
p512
g379
sS'axis ratio'
p513
S'0.240048989589712'
p514
sS'MaxVMag'
p515
S'<14.0'
p516
sS'cfaRmax'
p517
g379
sS'v1 Fe II 5169 error'
p518
g379
sS'E(B-V) SF2011'
p519
S'0.0247'
p520
sS'cfaUmax'
p521
g379
ssS'fnir'
p522
S'/Users/fbianco/science/Dropbox/strippedcfaSN//nirphot/PAIRITEL_Ibc/Ibc/lcs/mag/sn2004gk_SN.4.rec.p3.fdi.exclude_bad.nntemp.galsub.f12.SNR3.clean.mag.dat'
p523
sg219
I00
sS'polysol'
p524
(dp525
g186
Nsg187
Nsg188
Nsg189
Nsg190
Nsg191
Nsg192
Nsg193
Nsg194
Nsg195
Nsg196
NssS'nir'
p526
I01
sS'maxmags'
p527
(dp528
g186
(dp529
g11
F0.0
sg96
Fnan
sg98
Fnan
ssg187
(dp530
g11
F0.0
sg96
Fnan
sg98
Fnan
ssg188
(dp531
g11
F0.0
sg96
Fnan
sg98
Fnan
ssg189
(dp532
g11
F0.0
sg96
Fnan
sg98
Fnan
ssg190
(dp533
g11
F0.0
sg96
Fnan
sg98
Fnan
ssg191
(dp534
g11
F0.0
sg96
Fnan
sg98
Fnan
ssg192
(dp535
g11
F0.0
sg96
Fnan
sg98
Fnan
ssg193
(dp536
g11
F0.0
sg96
Fnan
sg98
Fnan
ssg194
(dp537
g11
F0.0
sg96
Fnan
sg98
Fnan
ssg195
(dp538
g11
F0.0
sg96
Fnan
sg98
Fnan
ssg196
(dp539
g11
F0.0
sg96
Fnan
sg98
Fnan
sssS'snspline'
p540
(dp541
g186
Nsg187
Nsg188
Nsg189
Nsg190
Nsg191
Nsg192
Nsg193
Nsg194
Nsg195
Nsg196
NssS'pipeline'
p542
S'CfA3'
p543
sS'name'
p544
S'sn2004gk'
p545
sS'solution'
p546
(dp547
g186
(dp548
S'resid'
p549
NsS'pars'
p550
NsS'sol'
p551
NsS'deg'
p552
Nssg187
(dp553
g549
Nsg550
Nsg551
Nsg552
Nssg188
(dp554
g549
Nsg550
Nsg551
Nsg552
Nssg189
(dp555
g549
Nsg550
Nsg551
Nsg552
Nssg190
(dp556
g549
Nsg550
Nsg551
Nsg552
Nssg191
(dp557
g549
Nsg550
Nsg551
Nsg552
Nssg192
(dp558
g549
Nsg550
Nsg551
Nsg552
Nssg193
(dp559
g549
Nsg550
Nsg551
Nsg552
Nssg194
(dp560
g549
Nsg550
Nsg551
Nsg552
Nssg195
(dp561
g549
Nsg550
Nsg551
Nsg552
Nssg196
(dp562
g549
Nsg550
Nsg551
Nsg552
NsssS'su'
p563
(itemplutils
setupvars
p564
(dp565
S'photcodes'
p566
(dp567
g186
(S'02'
p568
S'07'
p569
tp570
sg187
(S'05'
p571
S'0a'
p572
tp573
sg188
(g188
g188
tp574
sg189
(g189
g189
tp575
sg190
(g190
g190
tp576
sg192
(S'04'
p577
S'09'
p578
tp579
sg195
(S'01'
p580
S'06'
p581
tp582
sg194
(S'03'
p583
S'08'
p584
tp585
sg191
(S'14'
p586
S'0c'
p587
tp588
sg196
(S'13'
p589
S'0b'
p590
tp591
sg193
(S'15'
p592
g592
tp593
ssS'mysymbols'
p594
(dp595
S'Ic-bl'
p596
S'v'
p597
sS'other'
p598
S'x'
p599
sS'IIb'
p600
S'^'
p601
sS'IIb-n'
p602
g385
sS'Ic'
p603
S's'
p604
sS'Ib'
p605
S'o'
p606
ssS'bandsnonir'
p607
(lp608
g195
ag193
ag186
ag194
ag192
ag187
ag196
ag191
asS'ebmvcfa'
p609
(dp610
S'07gr'
p611
F0.0462
sS'09iz'
p612
F0.064
sS'04aw'
p613
F0.352
sS'06aj'
p614
F0.141
sS'07ag'
p615
F0.627
sS'02ap'
p616
F0.03
sS'05kl'
p617
F1.344
sS'08bo'
p618
F0.294
sS'06lv'
p619
F0.574
sS'05kz'
p620
F0.437
sS'06F'
p621
F0.533
sS'07uy'
p622
F0.378
sS'08D'
p623
F0.572
sS'05bf'
p624
F0.05
sS'09jf'
p625
F0.045
sS'06bf'
p626
F0.368
sS'06fo'
p627
F0.201
sS'05mf'
p628
F0.231
sS'06T'
p629
F0.397
sS'07ce'
p630
F0.082
sS'07ru'
p631
F0.01
sS'03jd'
p632
F0.1
sS'07cl'
p633
F0.258
sS'09er'
p634
F0.11
sS'06el'
p635
F0.147
sS'06ep'
p636
F0.448
sS'07kj'
p637
F0.295
sS'07C'
p638
F0.65
sS'05hg'
p639
F0.244
ssS'insts'
p640
(lp641
S'shooter'
p642
aS'kepler'
p643
aS'mini'
p644
asS'mycolors'
p645
(dp646
g186
S'#0066cc'
p647
sg187
S'm'
p648
sg188
S'#FFB700'
p649
sg189
S'#A4A4A4'
p650
sg190
S'#4F088A'
p651
sg192
S'#b20000'
p652
sg195
S'k'
p653
sg194
S'#47b56c'
p654
sg191
g648
sg196
g652
sg193
g653
ssS'bands'
p655
(lp656
g195
ag193
ag186
ag194
ag192
ag187
ag196
ag191
ag190
ag188
ag189
asS'mylines'
p657
(dp658
g596
S'dotted'
p659
sg598
S'solid'
p660
sg600
g660
sg602
g660
sg603
g660
sg605
S'dashed'
p661
ssS'mytypecolors'
p662
(dp663
g596
g196
sg598
g653
sg600
S'g'
p664
sg602
S'y'
p665
sg603
g59
sg605
g653
ssS'mycolorcolors'
p666
(dp667
g45
S'#9999EE'
p668
sg33
S'#0B0B3B'
p669
sg43
g652
sg8
S'SlateBlue'
p670
sg13
g668
sg15
g648
sg23
g654
sg21
g648
sg49
g669
sg35
S'#70B8FF'
p671
sg31
g669
sg47
g669
sg37
g647
sg39
S'#FFCC80'
p672
sg51
g653
sg53
S'purple'
p673
sg41
g672
sg17
g652
sg19
g654
ssS'AonEBmV'
p674
(dp675
S'm2'
p676
F4.3
sg186
F4.315
sS'w1'
p677
F4.3
sg187
F1.94
sg188
F0.576
sg189
F0.367
sg190
F0.902
sg191
F2.086
sg192
F2.673
sg195
F5.434
sS'w2'
p678
F4.3
sS'vv'
p679
F3.315
sg194
F3.315
sg193
F5.155
sS'uu'
p680
F5.155
sg196
F2.751
ssS'instcodes'
p681
(dp682
g644
I1
sg643
I0
sg642
I0
ssS'ebmvs'
p683
(dp684
S'04ge'
p685
F0.0754
sS'04gk'
p686
F0.0247
sS'07aw'
p687
F0.0338
sS'04gt'
p688
F0.0398
sS'06gi'
p689
F0.0205
sS'04gv'
p690
F0.0286
sS'04gq'
p691
F0.0627
sg615
F0.025
sg628
F0.0153
sS'97dq'
p692
F0.0382
sS'05ek'
p693
F0.1811
sS'05eo'
p694
F0.0585
sS'98fa'
p695
F0.0382
sS'01ej'
p696
F0.046
sS'93J'
p697
F0.069
sg627
F0.025
sS'05nb'
p698
F0.032
sS'06ir'
p699
F0.0393
sS'09K'
p700
F0.0491
sS'04ff'
p701
F0.0281
sS'04fe'
p702
F0.021
sS'04ao'
p703
F0.0893
sg613
F0.018
sg617
F0.0219
sg619
F0.0245
sS'06ck'
p704
F0.0245
sS'05kf'
p705
F0.0378
sS'07hb'
p706
F0.0518
sg620
F0.046
sS'06ld'
p707
F0.0144
sS'06lc'
p708
F0.0556
sS'05da'
p709
F0.2483
sS'08hh'
p710
F0.0427
sg629
F0.0647
sS'07iq'
p711
F0.1182
sg634
F0.0389
sS'97ef'
p712
F0.0366
sS'96cb'
p713
F0.0262
sg612
F0.0729
sS'05az'
p714
F0.0097
sS'06cb'
p715
F0.0094
sS'05ar'
p716
F0.0394
sg618
F0.0513
sS'07bg'
p717
F0.0179
sS'01ai'
p718
F0.0081
sS'06jc'
p719
F0.0173
sS'06ss'
p720
F0.0178
sg621
F0.1635
sg622
F0.0194
sg624
F0.0385
sS'02ji'
p721
F0.0217
sS'97X'
p722
F0.0237
sg625
F0.0971
sg626
F0.0216
sS'06ba'
p723
F0.0452
sS'08an'
p724
F0.045
sg630
F0.02
sg631
F0.2254
sg632
F0.0784
sg633
F0.037
sS'07rz'
p725
F0.1723
sg635
F0.0973
sg636
F0.031
sg637
F0.0691
sS'08ax'
p726
F0.0186
sS'05U'
p727
F0.0143
sS'07ke'
p728
F0.0954
sS'08aq'
p729
F0.0383
sg611
F0.0535
sS'05la'
p730
F0.01
sS'94I'
p731
F0.0302
sS'95bb'
p732
F0.0948
sg614
F0.1267
sg616
F0.062
sS'98dt'
p733
F0.0219
sS'04eu'
p734
F0.0466
sS'00H'
p735
F0.1964
sS'01gd'
p736
F0.0098
sS'04dn'
p737
F0.0415
sg623
F0.0194
sS'95F'
p738
F0.0311
sS'08cw'
p739
F0.006
sS'07D'
p740
F0.2881
sg638
F0.0363
sg639
F0.0901
sS'04dk'
p741
F0.1357
sS'07I'
p742
F0.025
ssS'ebmvhost'
p743
(dp744
g611
F0.038
sg616
F0.03
sg631
F0.01
sg632
F0.1
sg613
F0.352
sg726
F0.4
sg623
F0.5406
ssS'cs'
p745
(dp746
g8
I13
sg13
I8
sg15
I7
sg17
I3
sg19
I2
sg21
I6
sg23
I5
sg25
I16
sg27
I18
sg29
I17
sg31
I11
sg33
I19
sg35
I10
sg37
I1
sg39
I9
sg41
I14
sg43
I4
sg45
I9
sg47
I11
sg49
I15
sg51
I0
sg53
I12
ssS'bandsindex'
p747
(dp748
g186
I1
sg187
I4
sg188
I8
sg189
I9
sg190
I7
sg192
I3
sg195
I0
sg194
I2
sg191
I6
sg196
I5
sg193
I0
ssS'bandsnir'
p749
(lp750
g190
ag188
ag189
asS'myshapes'
p751
(dp752
g186
g604
sg187
g385
sg188
g604
sg189
g606
sg190
g601
sg192
g597
sg195
g601
sg194
g606
sg191
S'h'
p753
sg196
S'd'
p754
sg193
g601
ssS'types'
p755
(lp756
g605
ag603
ag600
ag596
ag602
asS'cbands'
p757
(lp758
g51
ag47
ag31
ag37
ag19
ag17
ag43
ag23
ag21
ag15
ag13
ag53
ag8
ag41
ag49
ag25
ag29
ag27
aS'H-i'
p759
aS'J-H'
p760
aS'K-J'
p761
asbsS'n'
p762
NsS'dr15'
p763
F0.0
sS'photometry'
p764
(dp765
g186
(dp766
g94
g56
(g57
(I0
tp767
g59
tp768
Rp769
(I1
(I0
tp770
g63
(S'f8'
p771
I0
I1
tp772
Rp773
(I3
S'<'
p774
NNNI-1
I-1
I0
tp775
bI00
g3
tp776
bsS'camsys'
p777
(lp778
g3
asS'natmag'
p779
g56
(g57
(I0
tp780
g59
tp781
Rp782
(I1
(I0
tp783
g773
I00
g3
tp784
bsg96
g56
(g57
(I0
tp785
g59
tp786
Rp787
(I1
(I0
tp788
g773
I00
g3
tp789
bsS'extmag'
p790
g56
(g57
(I0
tp791
g59
tp792
Rp793
(I1
(I0
tp794
g773
I00
g3
tp795
bsg98
g56
(g57
(I0
tp796
g59
tp797
Rp798
(I1
(I0
tp799
g773
I00
g3
tp800
bssg187
(dp801
g94
g56
(g57
(I0
tp802
g59
tp803
Rp804
(I1
(I0
tp805
g773
I00
g3
tp806
bsg777
(lp807
g3
asg779
g56
(g57
(I0
tp808
g59
tp809
Rp810
(I1
(I0
tp811
g773
I00
g3
tp812
bsg96
g56
(g57
(I0
tp813
g59
tp814
Rp815
(I1
(I0
tp816
g773
I00
g3
tp817
bsg790
g56
(g57
(I0
tp818
g59
tp819
Rp820
(I1
(I0
tp821
g773
I00
g3
tp822
bsg98
g56
(g57
(I0
tp823
g59
tp824
Rp825
(I1
(I0
tp826
g773
I00
g3
tp827
bssg188
(dp828
g94
g56
(g57
(I0
tp829
g59
tp830
Rp831
(I1
(I0
tp832
g773
I00
g3
tp833
bsg777
(lp834
g3
asg779
g56
(g57
(I0
tp835
g59
tp836
Rp837
(I1
(I0
tp838
g773
I00
g3
tp839
bsg96
g56
(g57
(I0
tp840
g59
tp841
Rp842
(I1
(I0
tp843
g773
I00
g3
tp844
bsg790
g56
(g57
(I0
tp845
g59
tp846
Rp847
(I1
(I0
tp848
g773
I00
g3
tp849
bsg98
g56
(g57
(I0
tp850
g59
tp851
Rp852
(I1
(I0
tp853
g773
I00
g3
tp854
bssg189
(dp855
g94
g56
(g57
(I0
tp856
g59
tp857
Rp858
(I1
(I0
tp859
g773
I00
g3
tp860
bsg777
(lp861
g3
asg779
g56
(g57
(I0
tp862
g59
tp863
Rp864
(I1
(I0
tp865
g773
I00
g3
tp866
bsg96
g56
(g57
(I0
tp867
g59
tp868
Rp869
(I1
(I0
tp870
g773
I00
g3
tp871
bsg790
g56
(g57
(I0
tp872
g59
tp873
Rp874
(I1
(I0
tp875
g773
I00
g3
tp876
bsg98
g56
(g57
(I0
tp877
g59
tp878
Rp879
(I1
(I0
tp880
g773
I00
g3
tp881
bssg190
(dp882
g94
g56
(g57
(I0
tp883
g59
tp884
Rp885
(I1
(I0
tp886
g773
I00
g3
tp887
bsg777
(lp888
g3
asg779
g56
(g57
(I0
tp889
g59
tp890
Rp891
(I1
(I0
tp892
g773
I00
g3
tp893
bsg96
g56
(g57
(I0
tp894
g59
tp895
Rp896
(I1
(I0
tp897
g773
I00
g3
tp898
bsg790
g56
(g57
(I0
tp899
g59
tp900
Rp901
(I1
(I0
tp902
g773
I00
g3
tp903
bsg98
g56
(g57
(I0
tp904
g59
tp905
Rp906
(I1
(I0
tp907
g773
I00
g3
tp908
bssg191
(dp909
g94
g56
(g57
(I0
tp910
g59
tp911
Rp912
(I1
(I0
tp913
g773
I00
g3
tp914
bsg777
(lp915
g3
asg779
g56
(g57
(I0
tp916
g59
tp917
Rp918
(I1
(I0
tp919
g773
I00
g3
tp920
bsg96
g56
(g57
(I0
tp921
g59
tp922
Rp923
(I1
(I0
tp924
g773
I00
g3
tp925
bsg790
g56
(g57
(I0
tp926
g59
tp927
Rp928
(I1
(I0
tp929
g773
I00
g3
tp930
bsg98
g56
(g57
(I0
tp931
g59
tp932
Rp933
(I1
(I0
tp934
g773
I00
g3
tp935
bssg192
(dp936
g94
g56
(g57
(I0
tp937
g59
tp938
Rp939
(I1
(I0
tp940
g773
I00
g3
tp941
bsg777
(lp942
g3
asg779
g56
(g57
(I0
tp943
g59
tp944
Rp945
(I1
(I0
tp946
g773
I00
g3
tp947
bsg96
g56
(g57
(I0
tp948
g59
tp949
Rp950
(I1
(I0
tp951
g773
I00
g3
tp952
bsg790
g56
(g57
(I0
tp953
g59
tp954
Rp955
(I1
(I0
tp956
g773
I00
g3
tp957
bsg98
g56
(g57
(I0
tp958
g59
tp959
Rp960
(I1
(I0
tp961
g773
I00
g3
tp962
bssg193
(dp963
g94
g56
(g57
(I0
tp964
g59
tp965
Rp966
(I1
(I0
tp967
g773
I00
g3
tp968
bsg777
(lp969
g3
asg779
g56
(g57
(I0
tp970
g59
tp971
Rp972
(I1
(I0
tp973
g773
I00
g3
tp974
bsg96
g56
(g57
(I0
tp975
g59
tp976
Rp977
(I1
(I0
tp978
g773
I00
g3
tp979
bsg790
g56
(g57
(I0
tp980
g59
tp981
Rp982
(I1
(I0
tp983
g773
I00
g3
tp984
bsg98
g56
(g57
(I0
tp985
g59
tp986
Rp987
(I1
(I0
tp988
g773
I00
g3
tp989
bssg194
(dp990
g94
g56
(g57
(I0
tp991
g59
tp992
Rp993
(I1
(I0
tp994
g773
I00
g3
tp995
bsg777
(lp996
g3
asg779
g56
(g57
(I0
tp997
g59
tp998
Rp999
(I1
(I0
tp1000
g773
I00
g3
tp1001
bsg96
g56
(g57
(I0
tp1002
g59
tp1003
Rp1004
(I1
(I0
tp1005
g773
I00
g3
tp1006
bsg790
g56
(g57
(I0
tp1007
g59
tp1008
Rp1009
(I1
(I0
tp1010
g773
I00
g3
tp1011
bsg98
g56
(g57
(I0
tp1012
g59
tp1013
Rp1014
(I1
(I0
tp1015
g773
I00
g3
tp1016
bssg195
(dp1017
g94
g56
(g57
(I0
tp1018
g59
tp1019
Rp1020
(I1
(I0
tp1021
g773
I00
g3
tp1022
bsg777
(lp1023
g3
asg779
g56
(g57
(I0
tp1024
g59
tp1025
Rp1026
(I1
(I0
tp1027
g773
I00
g3
tp1028
bsg96
g56
(g57
(I0
tp1029
g59
tp1030
Rp1031
(I1
(I0
tp1032
g773
I00
g3
tp1033
bsg790
g56
(g57
(I0
tp1034
g59
tp1035
Rp1036
(I1
(I0
tp1037
g773
I00
g3
tp1038
bsg98
g56
(g57
(I0
tp1039
g59
tp1040
Rp1041
(I1
(I0
tp1042
g773
I00
g3
tp1043
bssg196
(dp1044
g94
g56
(g57
(I0
tp1045
g59
tp1046
Rp1047
(I1
(I0
tp1048
g773
I00
g3
tp1049
bsg777
(lp1050
g3
asg779
g56
(g57
(I0
tp1051
g59
tp1052
Rp1053
(I1
(I0
tp1054
g773
I00
g3
tp1055
bsg96
g56
(g57
(I0
tp1056
g59
tp1057
Rp1058
(I1
(I0
tp1059
g773
I00
g3
tp1060
bsg790
g56
(g57
(I0
tp1061
g59
tp1062
Rp1063
(I1
(I0
tp1064
g773
I00
g3
tp1065
bsg98
g56
(g57
(I0
tp1066
g59
tp1067
Rp1068
(I1
(I0
tp1069
g773
I00
g3
tp1070
bsssb.