(isnclasses
mysn
p0
(dp1
S'camsystem'
p2
S''
p3
sS'dVmax'
p4
F0.0
sS'nomaxdate'
p5
I00
sS'maxcolors'
p6
(dp7
S'V-K'
p8
(dp9
S'color'
p10
Fnan
sS'epoch'
p11
F0.0
sS'dcolor'
p12
Fnan
ssS'V-H'
p13
(dp14
g10
Fnan
sg11
F0.0
sg12
Fnan
ssS'V-I'
p15
(dp16
g10
Fnan
sg11
F0.0
sg12
Fnan
ssS'R-I'
p17
(dp18
g10
Fnan
sg11
F0.0
sg12
Fnan
ssS'V-R'
p19
(dp20
g10
Fnan
sg11
F0.0
sg12
Fnan
ssS'V-i'
p21
(dp22
g10
Fnan
sg11
F0.0
sg12
Fnan
ssS'V-r'
p23
(dp24
g10
Fnan
sg11
F0.0
sg12
Fnan
ssS'B-J'
p25
(dp26
g10
Fnan
sg11
F0.0
sg12
Fnan
ssS'B-K'
p27
(dp28
g10
Fnan
sg11
F0.0
sg12
Fnan
ssS'B-H'
p29
(dp30
g10
Fnan
sg11
F0.0
sg12
Fnan
ssS'B-I'
p31
(dp32
g10
Fnan
sg11
F0.0
sg12
Fnan
ssS'B-R'
p33
(dp34
g10
Fnan
sg11
F0.0
sg12
Fnan
ssS'J-K'
p35
(dp36
g10
Fnan
sg11
F0.0
sg12
Fnan
ssS'B-V'
p37
(dp38
g10
Fnan
sg11
F0.0
sg12
Fnan
ssS'H-J'
p39
(dp40
g10
Fnan
sg11
F0.0
sg12
Fnan
ssS'H-K'
p41
(dp42
g10
Fnan
sg11
F0.0
sg12
Fnan
ssS'r-i'
p43
(dp44
g10
Fnan
sg11
F0.0
sg12
Fnan
ssS'I-H'
p45
(dp46
g10
Fnan
sg11
F0.0
sg12
Fnan
ssS'B-i'
p47
(dp48
g10
Fnan
sg11
F0.0
sg12
Fnan
ssS'B-r'
p49
(dp50
g10
Fnan
sg11
F0.0
sg12
Fnan
ssS'U-B'
p51
(dp52
g10
Fnan
sg11
F0.0
sg12
Fnan
ssS'r-K'
p53
(dp54
g10
Fnan
sg11
F0.0
sg12
Fnan
sssS'nirlc'
p55
cnumpy.core.multiarray
_reconstruct
p56
(cnumpy
ndarray
p57
(I0
tp58
S'b'
p59
tp60
Rp61
(I1
(I110
tp62
cnumpy
dtype
p63
(S'V13'
p64
I0
I1
tp65
Rp66
(I3
S'|'
p67
N(S'photcode'
p68
S'mjd'
p69
S'mag'
p70
S'dmag'
p71
tp72
(dp73
g69
(g63
(S'f4'
p74
I0
I1
tp75
Rp76
(I3
S'<'
p77
NNNI-1
I-1
I0
tp78
bI1
tp79
sg70
(g76
I5
tp80
sg68
(g63
(S'S1'
p81
I0
I1
tp82
Rp83
(I3
S'|'
p84
NNNI1
I1
I0
tp85
bI0
tp86
sg71
(g76
I9
tp87
sI13
I1
I16
tp88
bI00
S'JE\x14SGo\x12{A333>JC\x18SG\xe3\xa5\x7fAo\x12\x83=J;\x1eSG\x1b/\x81A333>J\x1f\x1fSGT\xe3\x80A\xecQ8=J1 SG\x08\xac\x81A\x96C\x0b=J6!SG\xaeG\x80A\x00\x00\x80>J.%SGj\xbc\x82A`\xe5P=J,&SG%\x06\x82A\x00\x00\x80>J.\'SG\xcd\xcc\x82A\xfc\xa9q=J\x1c(SGh\x91\x84Aw\xbe\x9f=J\x1a)SG\x98n\x81A\x00\x00\x80>J\x14*SG\x98n\x83A333>J8+SGH\xe1\x83A\xbct\x13=J\x1c,SG\x89A\x84A\x00\x00\x80>J\x17-SG\x91\xed\x84A9\xb4\xc8=J).SGj\xbc\x83A333>J1/SG\x81\x95\x84A\xf0\xa7\xc6=J\x1f0SGT\xe3\x84A333>J$1SGff\x85A333>J&2SG=\n\x85A\x00\x00\x80>J\x1c8SGD\x8b\x87A1\x08,=J\x1f:SGV\x0e\x88A333>J&;SG\\\x8f\x88A\x12\x83\xc0=J\x1a<SG\xf0\xa7\x87A7\x89A>J\x1a=SG\xfc\xa9\x87A333>J\x17@SG\x0c\x02\x89A\x8f\xc2u=J\x17ASGR\xb8\x89A\xecQ8=J\x14CSG\xe9&\x8bA\x02+\x87=J\x17DSG\xbct\x89AL7\x89=J\x14ESG\x00\x00\x8bAsh\x91=J&FSG\xe9&\x8bA\x9e\xef\'>J!JSG\xe3\xa5\x8bA\x8bl\xe7=J\x1aKSG\\\x8f\x8bA\xb6\xf3}=J1OSG\x93\x18\x8dANb\x10>J\x12VSGy\xe9\x8eA=\n\xd7=J\x12WSG\x83\xc0\x8eA\x00\x00\x80>J\x1aXSG;\xdf\x8eAw\xbe\x9f=J)YSG\xb8\x1e\x90A\xa8\xc6K>J\x0f\\SG#\xdb\x90A{\x14.>J&]SG-\xb2\x90A\x81\x95C>J&^SG\x7fj\x92A\xb2\x9do>J\x12cSG\x02+\x93A\xe7\xfb)>HE\x14SG/\xddxA333>HC\x18SG\xcd\xcczA333>H;\x1eSGb\x10~A\xb6\xf3\xfd<H\x1f\x1fSG^\xba\x80A\x00\x00\x80>H1 SG\x9e\xef\x7fA\x00\x00\x80>H6!SGP\x8d\x80A\x00\x00\x80>H.%SG#\xdb\x80A\xd5x\xe9=H,&SG\xac\x1c\x81A\x1b/\xdd<H.\'SG\xfc\xa9\x80A333>H\x1c(SGd;\x81A333>H\x1a)SG\xc7K\x81A\x00\x00\x80>H\x14*SG\xcd\xcc\x82A\x00\x00\x80>H8+SG\xf2\xd2\x83A\x00\x00\x80>H\x1c,SG\xd5x\x82A\x00\x00\x80>H\x17-SG+\x87\x84A\x00\x00\x80>H).SG\\\x8f\x83A333>H1/SGX9\x82A\x00\x00\x80>H\x1f0SG\xc1\xca\x84A\xbct\x93=H$1SG\x93\x18\x83A333>H&2SG\x14\xae\x83A333>H.7SGNb\x85A-\xb2\x9d=H\x1c8SG\x0e-\x84A333>H\x1f:SG\xf4\xfd\x84A\x00\x00\x80>H&;SG\xbe\x9f\x85A333>H\x1a<SG+\x87\x86A\x00\x00\x80>H\x1a=SGsh\x86A333>H\x17@SG\xa6\x9b\x87A\\\x8f\xc2=H\x17ASGR\xb8\x86A\xf4\xfdT=H\x1fBSG\n\xd7\x85A)\\\x8f=H\x14CSG\xfe\xd4\x87A\xcd\xccL=H\x17DSG\x1f\x85\x87Ah\x91\xed=H\x14ESG}?\x88A\xcd\xcc\xcc=H&FSG\x9c\xc4\x88A\x96C\x0b>H!JSG\xfc\xa9\x89A\xfa~j>H\x1aKSG\xd1"\x8bA\xf4\xfd\xd4=H1OSG\x02+\x8aA\x96C\x0b>H\x0fUSGF\xb6\x8bA\x00\x00\x80>H\x12VSGq=\x8bAu\x93\x18>H\x12WSG?5\x8dA\xa0\x1a/>H\x1aXSG\xb0r\x8dA\x00\x00\x80>H)YSG\xe1z\x8dA333>H&]SG5^\x8dA\xdb\xf9~>H&^SGb\x10\x8fA\xd1"[>H\x12cSGw\xbe\x8eA\x00\x00\x80>KE\x14SGfftA\x00\x00\x80>KC\x18SG\x93\x18rA\x00\x00\x80>K;\x1eSGj\xbcvA\x00\x00\x80>K\x1f\x1fSG;\xdfwA\x00\x00\x80>K1 SGq=vA\x00\x00\x80>K6!SG\xf4\xfdxA\x00\x00\x80>K.%SG\xc5 xA\x00\x00\x80>K\x1c(SG\xf6(zA\x00\x00\x80>K\x1a)SG\xa6\x9bvA\x00\x00\x80>K\x14*SG\x89A~A\x00\x00\x80>K8+SG#\xdbyA\x00\x00\x80>K\x17-SG{\x14zA\x00\x00\x80>K).SG-\xb2wA\x00\x00\x80>K1/SG\xfe\xd4xA\x00\x00\x80>K\x1f0SG\x04VzA\x00\x00\x80>K$1SG\x0c\x02yA\x00\x00\x80>K&2SG\xc1\xca\x7fA\x00\x00\x80>K!5SG}?}A\x00\x00\x80>K.7SG%\x06yA\x00\x00\x80>K\x1c8SG!\xb0zA\x00\x00\x80>K\x1f:SG\x96C\x7fA\x00\x00\x80>K&;SG#\xdb}A\x00\x00\x80>K\x1a<SG\x10X\x81A\x00\x00\x80>K\x1a=SG\xf8S\x80A\x00\x00\x80>'
p89
tp90
bsS'colors'
p91
(dp92
g8
(dp93
S'mjd'
p94
(lp95
sS'dmag'
p96
(lp97
sS'mag'
p98
(lp99
ssg13
(dp100
g94
(lp101
sg96
(lp102
sg98
(lp103
ssg15
(dp104
g94
(lp105
sg96
(lp106
sg98
(lp107
ssg17
(dp108
g94
(lp109
sg96
(lp110
sg98
(lp111
ssg19
(dp112
g94
(lp113
sg96
(lp114
sg98
(lp115
ssg21
(dp116
g94
(lp117
sg96
(lp118
sg98
(lp119
ssg23
(dp120
g94
(lp121
sg96
(lp122
sg98
(lp123
ssg25
(dp124
g94
(lp125
sg96
(lp126
sg98
(lp127
ssg27
(dp128
g94
(lp129
sg96
(lp130
sg98
(lp131
ssg29
(dp132
g94
(lp133
sg96
(lp134
sg98
(lp135
ssg31
(dp136
g94
(lp137
sg96
(lp138
sg98
(lp139
ssg33
(dp140
g94
(lp141
sg96
(lp142
sg98
(lp143
ssg35
(dp144
g94
(lp145
sg96
(lp146
sg98
(lp147
ssg37
(dp148
g94
(lp149
sg96
(lp150
sg98
(lp151
ssg39
(dp152
g94
(lp153
sg96
(lp154
sg98
(lp155
ssg41
(dp156
g94
(lp157
sg96
(lp158
sg98
(lp159
ssg43
(dp160
g94
(lp161
sg96
(lp162
sg98
(lp163
ssg45
(dp164
g94
(lp165
sg96
(lp166
sg98
(lp167
ssg47
(dp168
g94
(lp169
sg96
(lp170
sg98
(lp171
ssg49
(dp172
g94
(lp173
sg96
(lp174
sg98
(lp175
ssg51
(dp176
g94
(lp177
sg96
(lp178
sg98
(lp179
ssg53
(dp180
g94
(lp181
sg96
(lp182
sg98
(lp183
sssS'filters'
p184
(dp185
S'B'
p186
I0
sS'I'
p187
I0
sS'H'
p188
I0
sS'K'
p189
I0
sS'J'
p190
I0
sS'i'
p191
I0
sS'R'
p192
I0
sS'u'
p193
I0
sS'V'
p194
I0
sS'U'
p195
I0
sS'r'
p196
I0
ssS'snnameshort'
p197
S'06ld'
p198
sS'templsol'
p199
(dp200
g186
Nsg187
Nsg188
Nsg189
Nsg190
Nsg191
Nsg192
Nsg193
Nsg194
Nsg195
Nsg196
NssS'Vmaxmag'
p201
F0.0
sS'Vmaxflag'
p202
I00
sS'stats'
p203
(dp204
g186
(isnclasses
snstats
p205
(dp206
S'polyrchisq'
p207
F0.0
sS'Rdm15'
p208
F0.0
sS'tlim'
p209
(lp210
F0.0
aF0.0
asS'maglim'
p211
(lp212
F0.0
aF0.0
asS'templresid'
p213
NsS'polyresid'
p214
NsS'dm15'
p215
F0.0
sS'polydeg'
p216
F0.0
sS'success'
p217
I0
sS'flagmiss15'
p218
I0
sS'flagmissmax'
p219
I0
sS'm15data'
p220
(lp221
F0.0
aF0.0
asS'band'
p222
g3
sS'templrchisq'
p223
F0.0
sS'flagbadfit'
p224
I0
sS'Rdm15lin'
p225
(lp226
F0.0
aF0.0
asS'templatefit'
p227
(dp228
S'stretch'
p229
F1.0
sS'yoffset'
p230
F0.0
sS'xoffset'
p231
F0.0
sS'xstretch'
p232
F1.0
ssS'dm15lin'
p233
(lp234
F0.0
aF0.0
asS'maxjd'
p235
(lp236
F0.0
aF0.0
asS'norm'
p237
F0.0
sg229
F0.0
sbsg187
(isnclasses
snstats
p238
(dp239
g207
F0.0
sg208
F0.0
sg209
(lp240
F0.0
aF0.0
asg211
(lp241
F0.0
aF0.0
asg213
Nsg214
Nsg215
F0.0
sg216
F0.0
sg217
I0
sg218
I0
sg219
I0
sg220
(lp242
F0.0
aF0.0
asg222
g3
sg223
F0.0
sg224
I0
sg225
(lp243
F0.0
aF0.0
asg227
(dp244
g229
F1.0
sg230
F0.0
sg231
F0.0
sg232
F1.0
ssg233
(lp245
F0.0
aF0.0
asg235
(lp246
F0.0
aF0.0
asg237
F0.0
sg229
F0.0
sbsg188
(isnclasses
snstats
p247
(dp248
g207
F0.0
sg208
F0.0
sg209
(lp249
F0.0
aF0.0
asg211
(lp250
F0.0
aF0.0
asg213
Nsg214
Nsg215
F0.0
sg216
F0.0
sg217
I0
sg218
I0
sg219
I0
sg220
(lp251
F0.0
aF0.0
asg222
g3
sg223
F0.0
sg224
I0
sg225
(lp252
F0.0
aF0.0
asg227
(dp253
g229
F1.0
sg230
F0.0
sg231
F0.0
sg232
F1.0
ssg233
(lp254
F0.0
aF0.0
asg235
(lp255
F0.0
aF0.0
asg237
F0.0
sg229
F0.0
sbsg189
(isnclasses
snstats
p256
(dp257
g207
F0.0
sg208
F0.0
sg209
(lp258
F0.0
aF0.0
asg211
(lp259
F0.0
aF0.0
asg213
Nsg214
Nsg215
F0.0
sg216
F0.0
sg217
I0
sg218
I0
sg219
I0
sg220
(lp260
F0.0
aF0.0
asg222
g3
sg223
F0.0
sg224
I0
sg225
(lp261
F0.0
aF0.0
asg227
(dp262
g229
F1.0
sg230
F0.0
sg231
F0.0
sg232
F1.0
ssg233
(lp263
F0.0
aF0.0
asg235
(lp264
F0.0
aF0.0
asg237
F0.0
sg229
F0.0
sbsg190
(isnclasses
snstats
p265
(dp266
g207
F0.0
sg208
F0.0
sg209
(lp267
F0.0
aF0.0
asg211
(lp268
F0.0
aF0.0
asg213
Nsg214
Nsg215
F0.0
sg216
F0.0
sg217
I0
sg218
I0
sg219
I0
sg220
(lp269
F0.0
aF0.0
asg222
g3
sg223
F0.0
sg224
I0
sg225
(lp270
F0.0
aF0.0
asg227
(dp271
g229
F1.0
sg230
F0.0
sg231
F0.0
sg232
F1.0
ssg233
(lp272
F0.0
aF0.0
asg235
(lp273
F0.0
aF0.0
asg237
F0.0
sg229
F0.0
sbsg191
(isnclasses
snstats
p274
(dp275
g207
F0.0
sg208
F0.0
sg209
(lp276
F0.0
aF0.0
asg211
(lp277
F0.0
aF0.0
asg213
Nsg214
Nsg215
F0.0
sg216
F0.0
sg217
I0
sg218
I0
sg219
I0
sg220
(lp278
F0.0
aF0.0
asg222
g3
sg223
F0.0
sg224
I0
sg225
(lp279
F0.0
aF0.0
asg227
(dp280
g229
F1.0
sg230
F0.0
sg231
F0.0
sg232
F1.0
ssg233
(lp281
F0.0
aF0.0
asg235
(lp282
F0.0
aF0.0
asg237
F0.0
sg229
F0.0
sbsg192
(isnclasses
snstats
p283
(dp284
g207
F0.0
sg208
F0.0
sg209
(lp285
F0.0
aF0.0
asg211
(lp286
F0.0
aF0.0
asg213
Nsg214
Nsg215
F0.0
sg216
F0.0
sg217
I0
sg218
I0
sg219
I0
sg220
(lp287
F0.0
aF0.0
asg222
g3
sg223
F0.0
sg224
I0
sg225
(lp288
F0.0
aF0.0
asg227
(dp289
g229
F1.0
sg230
F0.0
sg231
F0.0
sg232
F1.0
ssg233
(lp290
F0.0
aF0.0
asg235
(lp291
F0.0
aF0.0
asg237
F0.0
sg229
F0.0
sbsg193
(isnclasses
snstats
p292
(dp293
g207
F0.0
sg208
F0.0
sg209
(lp294
F0.0
aF0.0
asg211
(lp295
F0.0
aF0.0
asg213
Nsg214
Nsg215
F0.0
sg216
F0.0
sg217
I0
sg218
I0
sg219
I0
sg220
(lp296
F0.0
aF0.0
asg222
g3
sg223
F0.0
sg224
I0
sg225
(lp297
F0.0
aF0.0
asg227
(dp298
g229
F1.0
sg230
F0.0
sg231
F0.0
sg232
F1.0
ssg233
(lp299
F0.0
aF0.0
asg235
(lp300
F0.0
aF0.0
asg237
F0.0
sg229
F0.0
sbsg194
(isnclasses
snstats
p301
(dp302
g207
F0.0
sg208
F0.0
sg209
(lp303
F0.0
aF0.0
asg211
(lp304
F0.0
aF0.0
asg213
Nsg214
Nsg215
F0.0
sg216
F0.0
sg217
I0
sg218
I0
sg219
I0
sg220
(lp305
F0.0
aF0.0
asg222
g3
sg223
F0.0
sg224
I0
sg225
(lp306
F0.0
aF0.0
asg227
(dp307
g229
F1.0
sg230
F0.0
sg231
F0.0
sg232
F1.0
ssg233
(lp308
F0.0
aF0.0
asg235
(lp309
F0.0
aF0.0
asg237
F0.0
sg229
F0.0
sbsg195
(isnclasses
snstats
p310
(dp311
g207
F0.0
sg208
F0.0
sg209
(lp312
F0.0
aF0.0
asg211
(lp313
F0.0
aF0.0
asg213
Nsg214
Nsg215
F0.0
sg216
F0.0
sg217
I0
sg218
I0
sg219
I0
sg220
(lp314
F0.0
aF0.0
asg222
g3
sg223
F0.0
sg224
I0
sg225
(lp315
F0.0
aF0.0
asg227
(dp316
g229
F1.0
sg230
F0.0
sg231
F0.0
sg232
F1.0
ssg233
(lp317
F0.0
aF0.0
asg235
(lp318
F0.0
aF0.0
asg237
F0.0
sg229
F0.0
sbsg196
(isnclasses
snstats
p319
(dp320
g207
F0.0
sg208
F0.0
sg209
(lp321
F0.0
aF0.0
asg211
(lp322
F0.0
aF0.0
asg213
Nsg214
Nsg215
F0.0
sg216
F0.0
sg217
I0
sg218
I0
sg219
I0
sg220
(lp323
F0.0
aF0.0
asg222
g3
sg223
F0.0
sg224
I0
sg225
(lp324
F0.0
aF0.0
asg227
(dp325
g229
F1.0
sg230
F0.0
sg231
F0.0
sg232
F1.0
ssg233
(lp326
F0.0
aF0.0
asg235
(lp327
F0.0
aF0.0
asg237
F0.0
sg229
F0.0
sbssS'lc'
p328
(dp329
g94
g56
(g57
(I0
tp330
g59
tp331
Rp332
(I1
(I172
tp333
g76
I00
S'/$SG)&SG)\'SGC(SG#0SG#1SG.$SG(&SG(\'SGA(SG"0SG"1SG>\x1cSG0\x1dSG9\x1eSG.$SG\'&SG\'\'SGA(SG!0SG!1SG\'<SG\'>SG\x1b@SG\x1eASG$NSG\x19OSG TSG!USG=\x1cSG0\x1dSG9\x1eSG-$SG\'&SG\'\'SG@(SG!0SG!1SG\'<SG&>SG\x1a@SG\x1dASG$NSG\x18OSG\x1fTSG USG=\x1cSG8\x1eSG-$SG\'&SG&\'SG@(SG 0SG 1SG&<SG%>SG\x19@SG\x1cASG#NSG\x17OSG\x1eTSG\x1fUSGE\x14SGC\x18SG;\x1eSG\x1f\x1fSG1 SG6!SG.%SG,&SG.\'SG\x1c(SG\x1a)SG\x14*SG8+SG\x1c,SG\x17-SG).SG1/SG\x1f0SG$1SG&2SG\x1c8SG\x1f:SG&;SG\x1a<SG\x1a=SG\x17@SG\x17ASG\x14CSG\x17DSG\x14ESG&FSG!JSG\x1aKSG1OSG\x12VSG\x12WSG\x1aXSG)YSG\x0f\\SG&]SG&^SG\x12cSGE\x14SGC\x18SG;\x1eSG\x1f\x1fSG1 SG6!SG.%SG,&SG.\'SG\x1c(SG\x1a)SG\x14*SG8+SG\x1c,SG\x17-SG).SG1/SG\x1f0SG$1SG&2SG.7SG\x1c8SG\x1f:SG&;SG\x1a<SG\x1a=SG\x17@SG\x17ASG\x1fBSG\x14CSG\x17DSG\x14ESG&FSG!JSG\x1aKSG1OSG\x0fUSG\x12VSG\x12WSG\x1aXSG)YSG&]SG&^SG\x12cSGE\x14SGC\x18SG;\x1eSG\x1f\x1fSG1 SG6!SG.%SG\x1c(SG\x1a)SG\x14*SG8+SG\x17-SG).SG1/SG\x1f0SG$1SG&2SG!5SG.7SG\x1c8SG\x1f:SG&;SG\x1a<SG\x1a=SG'
p334
tp335
bsS'ccmag'
p336
g56
(g57
(I0
tp337
g59
tp338
Rp339
(I1
(I172
tp340
g76
I00
S'\xf3\x0e\x99A*)\x9bAq\x9b\x9aAO/\x98A\xbc\x05\x9bA\x9d\x11\x97A\x18&\x94A\xb7\xe2\x94Ab\x90\x94A\xe8j\x94A.\xff\x95A\x9a\xf7\x95A\xb9\r\x89A\x85|\x89A\xa2\xc5\x8aA\xd6E\x8cA,T\x8cA\xa2\xb4\x8cAp\xdf\x8cA\x15\x0c\x8eAl\xf8\x8dA\xfc\x98\x8fA}P\x90A!\xb0\x90AF\x14\x91A\xf0\x96\x92A\x11\xc7\x92A\xc5\xa0\x92Au\x02\x92A\xa9\x13\x87A\xca2\x88A\xf2R\x88A8\xe7\x89Al\xf8\x89A\xd9=\x8aA\x88\x85\x8aA\x01\xcd\x8bA\xa9$\x8cA6<\x8eA\xed\x8d\x8eA\xd5\xe7\x8eA\x92\xcb\x8eA>y\x91A\x901\x91A0*\x90A\xae\xb6\x91A\x82\xe2\x85A\x04g\x87A\xd3^\x88A\xe0\x9c\x88A\x83\xaf\x88AZ\xe4\x88A\xf5J\x8aA+\x98\x8aA\xbb\xa7\x8cAi\xef\x8cA\nW\x8dA^K\x8dAn4\x90A\x91\xed\x90A\x80H\x91A\xbb8\x91Ao\x12{A\xe3\xa5\x7fA\x1b/\x81AT\xe3\x80A\x08\xac\x81A\xaeG\x80Aj\xbc\x82A%\x06\x82A\xcd\xcc\x82Ah\x91\x84A\x98n\x81A\x98n\x83AH\xe1\x83A\x89A\x84A\x91\xed\x84Aj\xbc\x83A\x81\x95\x84AT\xe3\x84Aff\x85A=\n\x85AD\x8b\x87AV\x0e\x88A\\\x8f\x88A\xf0\xa7\x87A\xfc\xa9\x87A\x0c\x02\x89AR\xb8\x89A\xe9&\x8bA\xbct\x89A\x00\x00\x8bA\xe9&\x8bA\xe3\xa5\x8bA\\\x8f\x8bA\x93\x18\x8dAy\xe9\x8eA\x83\xc0\x8eA;\xdf\x8eA\xb8\x1e\x90A#\xdb\x90A-\xb2\x90A\x7fj\x92A\x02+\x93A/\xddxA\xcd\xcczAb\x10~A^\xba\x80A\x9e\xef\x7fAP\x8d\x80A#\xdb\x80A\xac\x1c\x81A\xfc\xa9\x80Ad;\x81A\xc7K\x81A\xcd\xcc\x82A\xf2\xd2\x83A\xd5x\x82A+\x87\x84A\\\x8f\x83AX9\x82A\xc1\xca\x84A\x93\x18\x83A\x14\xae\x83ANb\x85A\x0e-\x84A\xf4\xfd\x84A\xbe\x9f\x85A+\x87\x86Ash\x86A\xa6\x9b\x87AR\xb8\x86A\n\xd7\x85A\xfe\xd4\x87A\x1f\x85\x87A}?\x88A\x9c\xc4\x88A\xfc\xa9\x89A\xd1"\x8bA\x02+\x8aAF\xb6\x8bAq=\x8bA?5\x8dA\xb0r\x8dA\xe1z\x8dA5^\x8dAb\x10\x8fAw\xbe\x8eAfftA\x93\x18rAj\xbcvA;\xdfwAq=vA\xf4\xfdxA\xc5 xA\xf6(zA\xa6\x9bvA\x89A~A#\xdbyA{\x14zA-\xb2wA\xfe\xd4xA\x04VzA\x0c\x02yA\xc1\xca\x7fA}?}A%\x06yA!\xb0zA\x96C\x7fA#\xdb}A\x10X\x81A\xf8S\x80A'
p341
tp342
bsg98
g56
(g57
(I0
tp343
g59
tp344
Rp345
(I1
(I172
tp346
g76
I00
S'\x0e\xad\x98Aw\xbe\x9aAX9\x9aA\xec\xd1\x97A\xd1\xa2\x9aA!\xb0\x96A\xa8\xc6\x93A\xe1z\x94A\'1\x94A\\\x0f\x94A\xb8\x9e\x95A\x87\x96\x95Aq=\x89A\x08\xac\x89A\x9e\xef\x8aA\xbct\x8cA+\x87\x8cAT\xe3\x8cAJ\x0c\x8dAd;\x8eA\xf0\'\x8eA\xc1\xca\x8fA\xfa~\x90A/\xdd\x90A}?\x91Aj\xbc\x92A\x85\xeb\x92A\xa8\xc6\x92A\x08,\x92A\xc5 \x87A\xc7K\x88A\xecQ\x88A\x8b\xec\x89A\x0c\x02\x8aA\x89A\x8aA7\x89\x8aA\xfe\xd4\x8bA94\x8cA\x04V\x8eA\xb2\x9d\x8eA\xc3\xf5\x8eA\xd9\xce\x8eAD\x8b\x91A^:\x91A\xdd$\x90A#\xdb\x91A\x0c\x02\x86A\xfa~\x87A\xd5x\x88Aj\xbc\x88A\xb4\xc8\x88A\xe7\xfb\x88Aff\x8aAF\xb6\x8aA\xc1\xca\x8cAJ\x0c\x8dA\xb0r\x8dANb\x8dA\xd3M\x90A7\t\x91Ash\x91AB`\x91Ao\x12{A\xe3\xa5\x7fA\x1b/\x81AT\xe3\x80A\x08\xac\x81A\xaeG\x80Aj\xbc\x82A%\x06\x82A\xcd\xcc\x82Ah\x91\x84A\x98n\x81A\x98n\x83AH\xe1\x83A\x89A\x84A\x91\xed\x84Aj\xbc\x83A\x81\x95\x84AT\xe3\x84Aff\x85A=\n\x85AD\x8b\x87AV\x0e\x88A\\\x8f\x88A\xf0\xa7\x87A\xfc\xa9\x87A\x0c\x02\x89AR\xb8\x89A\xe9&\x8bA\xbct\x89A\x00\x00\x8bA\xe9&\x8bA\xe3\xa5\x8bA\\\x8f\x8bA\x93\x18\x8dAy\xe9\x8eA\x83\xc0\x8eA;\xdf\x8eA\xb8\x1e\x90A#\xdb\x90A-\xb2\x90A\x7fj\x92A\x02+\x93A/\xddxA\xcd\xcczAb\x10~A^\xba\x80A\x9e\xef\x7fAP\x8d\x80A#\xdb\x80A\xac\x1c\x81A\xfc\xa9\x80Ad;\x81A\xc7K\x81A\xcd\xcc\x82A\xf2\xd2\x83A\xd5x\x82A+\x87\x84A\\\x8f\x83AX9\x82A\xc1\xca\x84A\x93\x18\x83A\x14\xae\x83ANb\x85A\x0e-\x84A\xf4\xfd\x84A\xbe\x9f\x85A+\x87\x86Ash\x86A\xa6\x9b\x87AR\xb8\x86A\n\xd7\x85A\xfe\xd4\x87A\x1f\x85\x87A}?\x88A\x9c\xc4\x88A\xfc\xa9\x89A\xd1"\x8bA\x02+\x8aAF\xb6\x8bAq=\x8bA?5\x8dA\xb0r\x8dA\xe1z\x8dA5^\x8dAb\x10\x8fAw\xbe\x8eAfftA\x93\x18rAj\xbcvA;\xdfwAq=vA\xf4\xfdxA\xc5 xA\xf6(zA\xa6\x9bvA\x89A~A#\xdbyA{\x14zA-\xb2wA\xfe\xd4xA\x04VzA\x0c\x02yA\xc1\xca\x7fA}?}A%\x06yA!\xb0zA\x96C\x7fA#\xdb}A\x10X\x81A\xf8S\x80A'
p347
tp348
bsS'photcode'
p349
g56
(g57
(I0
tp350
g59
tp351
Rp352
(I1
(I172
tp353
g63
(S'S2'
p354
I0
I1
tp355
Rp356
(I3
S'|'
p357
NNNI2
I1
I0
tp358
bI00
S'0101010101010202020202020303030303030303030303030303030303131313131313131313131313131313131314141414141414141414141414141414J\x00J\x00J\x00J\x00J\x00J\x00J\x00J\x00J\x00J\x00J\x00J\x00J\x00J\x00J\x00J\x00J\x00J\x00J\x00J\x00J\x00J\x00J\x00J\x00J\x00J\x00J\x00J\x00J\x00J\x00J\x00J\x00J\x00J\x00J\x00J\x00J\x00J\x00J\x00J\x00J\x00J\x00H\x00H\x00H\x00H\x00H\x00H\x00H\x00H\x00H\x00H\x00H\x00H\x00H\x00H\x00H\x00H\x00H\x00H\x00H\x00H\x00H\x00H\x00H\x00H\x00H\x00H\x00H\x00H\x00H\x00H\x00H\x00H\x00H\x00H\x00H\x00H\x00H\x00H\x00H\x00H\x00H\x00H\x00H\x00H\x00K\x00K\x00K\x00K\x00K\x00K\x00K\x00K\x00K\x00K\x00K\x00K\x00K\x00K\x00K\x00K\x00K\x00K\x00K\x00K\x00K\x00K\x00K\x00K\x00'
p359
tp360
bsg96
g56
(g57
(I0
tp361
g59
tp362
Rp363
(I1
(I172
tp364
g76
I00
S'\x83\xc0\n>\xf8S#>Nb\x10>\xfa~\xea=\x9a\x99\x19>d;\xdf=\x1b/\xdd<\xb8\x1e\x05=\x8f\xc2\xf5<\x8f\xc2\xf5<\x02+\x07=\xc5 0=\xb6\xf3\xfd<w\xbe\x1f=\xf4\xfd\xd4<\n\xd7\xa3<\xe3\xa5\x9b<\n\xd7\xa3<1\x08\xac<1\x08\xac<\x8f\xc2\xf5<\xcd\xcc\xcc<\xcd\xcc\xcc<\xf4\xfd\xd4<\xcd\xcc\xcc<\x1b/\xdd<w\xbe\x1f=T\xe3\xa5=\xe3\xa5\x1b=h\x91\xed<)\\\x0f=\n\xd7\xa3<w\xbe\x9f<\x96C\x8b<\xbct\x93<\x9e\xef\xa7<X9\xb4<\xbct\x13=1\x08\xac<1\x08\xac<1\x08\xac<X9\xb4<\xcd\xcc\xcc<\xb8\x1e\x05=`\xe5P=\xd9\xcew=\xa6\x9b\xc4<\x9e\xef\'=1\x08\xac<1\x08\xac<\x7fj\xbc<\n\xd7\xa3<\x7fj\xbc<)\\\x0f=\xcd\xcc\xcc<\xf4\xfd\xd4<\x7fj\xbc<X9\xb4<\x96C\x0b=\x8f\xc2\xf5<h\x91m=\xbct\x13=333>o\x12\x83=333>\xecQ8=\x96C\x0b=\x00\x00\x80>`\xe5P=\x00\x00\x80>\xfc\xa9q=w\xbe\x9f=\x00\x00\x80>333>\xbct\x13=\x00\x00\x80>9\xb4\xc8=333>\xf0\xa7\xc6=333>333>\x00\x00\x80>1\x08,=333>\x12\x83\xc0=7\x89A>333>\x8f\xc2u=\xecQ8=\x02+\x87=L7\x89=sh\x91=\x9e\xef\'>\x8bl\xe7=\xb6\xf3}=Nb\x10>=\n\xd7=\x00\x00\x80>w\xbe\x9f=\xa8\xc6K>{\x14.>\x81\x95C>\xb2\x9do>\xe7\xfb)>333>333>\xb6\xf3\xfd<\x00\x00\x80>\x00\x00\x80>\x00\x00\x80>\xd5x\xe9=\x1b/\xdd<333>333>\x00\x00\x80>\x00\x00\x80>\x00\x00\x80>\x00\x00\x80>\x00\x00\x80>333>\x00\x00\x80>\xbct\x93=333>333>-\xb2\x9d=333>\x00\x00\x80>333>\x00\x00\x80>333>\\\x8f\xc2=\xf4\xfdT=)\\\x8f=\xcd\xccL=h\x91\xed=\xcd\xcc\xcc=\x96C\x0b>\xfa~j>\xf4\xfd\xd4=\x96C\x0b>\x00\x00\x80>u\x93\x18>\xa0\x1a/>\x00\x00\x80>333>\xdb\xf9~>\xd1"[>\x00\x00\x80>\x00\x00\x80>\x00\x00\x80>\x00\x00\x80>\x00\x00\x80>\x00\x00\x80>\x00\x00\x80>\x00\x00\x80>\x00\x00\x80>\x00\x00\x80>\x00\x00\x80>\x00\x00\x80>\x00\x00\x80>\x00\x00\x80>\x00\x00\x80>\x00\x00\x80>\x00\x00\x80>\x00\x00\x80>\x00\x00\x80>\x00\x00\x80>\x00\x00\x80>\x00\x00\x80>\x00\x00\x80>\x00\x00\x80>\x00\x00\x80>'
p365
tp366
bssS'Vmag'
p367
NsS'Rmax'
p368
(dp369
sS'polyfit'
p370
NsS'ebmvtot'
p371
F0.0
sS'Vmax'
p372
F0.0
sS'type'
p373
S'Ib'
p374
sS'metadata'
p375
(dp376
g3
S'0.562'
p377
sS'cfaUmaxerr'
p378
S'-'
p379
sS'v2 Fe II 5169 date'
p380
g379
sS'D11Rmax'
p381
g3
sS'v_z'
p382
S'4179'
p383
sS'E(b-v)hosterr'
p384
S'--'
p385
sS'v1 Fe II 5018 date'
p386
g379
sS'cfaRmaxerr'
p387
g379
sS'CfA RJD bootstrap'
p388
S'<0000000'
p389
sS'inclination from axes sdss'
p390
S'36.6273677527243'
p391
sS'my E(B-V)host from inclination'
p392
S'0.187583457562715'
p393
sS'RA'
p394
S'0:35:27'
p395
sS'cfaVmaxerr'
p396
g379
sS'Dm15 (with Lyman BC correction)'
p397
g3
sS'CfA E(B-V)host'
p398
g3
sS'lcvquality'
p399
S'2'
p400
sS'v1 Fe II 5169 '
p401
g379
sS'decdeg'
p402
S'2.93075'
p403
sS'cfaVmax'
p404
g379
sS'CfA VJD bootstrap error'
p405
S'--'
p406
sS'MaxVJD'
p407
S'<2454044.7'
p408
sS'D11Vmaxdate'
p409
g3
sS'v1 Fe II 5018 '
p410
g379
sS'D11Rmaxdate'
p411
g3
sS'D11Rmaxerr'
p412
g3
sS'Fe II 5169 at maximum (linear interpolation error)'
p413
S'#VALUE!'
p414
sS'D11Vmaxerr'
p415
g3
sS'axis ratio sdss'
p416
S'0.84'
p417
sS'D11Rmaxdateerr'
p418
g3
sS'v2 FeII 5018 date'
p419
g379
sS'DEC'
p420
S'+02:55:50.7'
p421
sS'Type'
p422
g374
sS'cfaJmaxerr'
p423
g379
sS'SNname'
p424
S'sn2006ld'
p425
sS'Fe II 5169 at maximum (linear interpolation)'
p426
g379
sS'inclination'
p427
S'--'
p428
sS'cfaHmaxerr'
p429
g379
sS'DFS E(B-V)'
p430
S'0.0167'
p431
sS'image subtraction needed'
p432
S'Y'
p433
sS'CfA BJD bootstrap'
p434
S'<0000000'
p435
sS'v1 Fe II 5169 date'
p436
g379
sS' CfA E(B-V)hosterr'
p437
g3
sS'v2 Fe II 5018'
p438
g379
sS'P13 UV data'
p439
S'0'
p440
sS'cfaHmax'
p441
g3
sS'v2 Fe II 5169 error'
p442
g379
sS'CfA IJD bootstrap'
p443
S'<0000000'
p444
sS'cfaKmax'
p445
g379
sS'comment'
p446
S';'
p447
sS'dVJD CfA bootstrap'
p448
S'#VALUE!'
p449
sS'radeg'
p450
S'8.8625'
p451
sS'distance Mpc'
p452
S'60.3926597026'
p453
sS'inclination error'
p454
S'--'
p455
sS'PAIRITEL'
p456
g433
sS'cfaImax'
p457
g379
sS'Fe II 5169 new'
p458
g3
sS'cfaBmaxerr'
p459
g379
sS'v2 Fe II 5018 error'
p460
g379
sS'E(b-v)host'
p461
S'--'
p462
sS'CfA photometric quality (1best, 3 worst)'
p463
g400
sS'inclination/E(B-V) ref'
p464
S'--'
p465
sS'cfaBmax'
p466
g379
sS'CfA IJD error'
p467
S'<0000000'
p468
sS'D11Vmaxdateerr'
p469
g3
sS'CfA dm15'
p470
S'-0.382'
p471
sS'Fe II 5018 at maximum (linear interpolation)'
p472
g379
sS'CfA BJD error'
p473
S'<0000000'
p474
sS'earliestV'
p475
S'2454044.542'
p476
sS'inclination from leida'
p477
S'--'
p478
sS'CfA dm15 linear'
p479
S'-0.394'
p480
sS'z'
p481
S'0.01394'
p482
sS'cfaImaxerr'
p483
g379
sS'cfaJmax'
p484
g3
sS'max_ref'
p485
S'CfA'
p486
sS'v2 Fe II 5169'
p487
g379
sS'FeII51691or2'
p488
S'#DIV/0!'
p489
sS'CfA VJD bootstrap'
p490
S'<2454044.74'
p491
sS'v1 Fe II 5018 error'
p492
g379
sS'MaxVdate'
p493
S'<20061105.2'
p494
sS'z_ref'
p495
S'NED**'
p496
sS'D11Vmax'
p497
g3
sS'distanced11'
p498
S'--'
p499
sS'separation '
p500
g379
sS'hostgal'
p501
S'UGC348'
p502
sS'E(B-V)'
p503
S'--'
p504
sS'inclination from axes'
p505
S'41.2618660460816'
p506
sS'CfA RJD error'
p507
S'<0000000'
p508
sS'cfaKmaxerr'
p509
g379
sS'axis ratio'
p510
S'0.794908062234795'
p511
sS'MaxVMag'
p512
S'<17.1'
p513
sS'cfaRmax'
p514
g379
sS'v1 Fe II 5169 error'
p515
g379
sS'E(B-V) SF2011'
p516
S'0.0144'
p517
sS'cfaUmax'
p518
g379
ssS'fnir'
p519
S'/Users/fbianco/science/Dropbox/strippedcfaSN//nirphot/PAIRITEL_Ibc/Ibc/lcs/mag/sn2006ld_SN.58.rec.p3.fdi.exclude_bad.nntemp.galsub.f12.SNR3.clean.mag.dat'
p520
sg219
I00
sS'polysol'
p521
(dp522
g186
Nsg187
Nsg188
Nsg189
Nsg190
Nsg191
Nsg192
Nsg193
Nsg194
Nsg195
Nsg196
NssS'nir'
p523
I01
sS'maxmags'
p524
(dp525
g186
(dp526
g11
F0.0
sg96
Fnan
sg98
Fnan
ssg187
(dp527
g11
F0.0
sg96
Fnan
sg98
Fnan
ssg188
(dp528
g11
F0.0
sg96
Fnan
sg98
Fnan
ssg189
(dp529
g11
F0.0
sg96
Fnan
sg98
Fnan
ssg190
(dp530
g11
F0.0
sg96
Fnan
sg98
Fnan
ssg191
(dp531
g11
F0.0
sg96
Fnan
sg98
Fnan
ssg192
(dp532
g11
F0.0
sg96
Fnan
sg98
Fnan
ssg193
(dp533
g11
F0.0
sg96
Fnan
sg98
Fnan
ssg194
(dp534
g11
F0.0
sg96
Fnan
sg98
Fnan
ssg195
(dp535
g11
F0.0
sg96
Fnan
sg98
Fnan
ssg196
(dp536
g11
F0.0
sg96
Fnan
sg98
Fnan
sssS'snspline'
p537
(dp538
g186
Nsg187
Nsg188
Nsg189
Nsg190
Nsg191
Nsg192
Nsg193
Nsg194
Nsg195
Nsg196
NssS'pipeline'
p539
S'CfA4'
p540
sS'name'
p541
S'sn2006ld'
p542
sS'solution'
p543
(dp544
g186
(dp545
S'resid'
p546
NsS'pars'
p547
NsS'sol'
p548
NsS'deg'
p549
Nssg187
(dp550
g546
Nsg547
Nsg548
Nsg549
Nssg188
(dp551
g546
Nsg547
Nsg548
Nsg549
Nssg189
(dp552
g546
Nsg547
Nsg548
Nsg549
Nssg190
(dp553
g546
Nsg547
Nsg548
Nsg549
Nssg191
(dp554
g546
Nsg547
Nsg548
Nsg549
Nssg192
(dp555
g546
Nsg547
Nsg548
Nsg549
Nssg193
(dp556
g546
Nsg547
Nsg548
Nsg549
Nssg194
(dp557
g546
Nsg547
Nsg548
Nsg549
Nssg195
(dp558
g546
Nsg547
Nsg548
Nsg549
Nssg196
(dp559
g546
Nsg547
Nsg548
Nsg549
NsssS'su'
p560
(itemplutils
setupvars
p561
(dp562
S'photcodes'
p563
(dp564
g186
(S'02'
p565
S'07'
p566
tp567
sg187
(S'05'
p568
S'0a'
p569
tp570
sg188
(g188
g188
tp571
sg189
(g189
g189
tp572
sg190
(g190
g190
tp573
sg192
(S'04'
p574
S'09'
p575
tp576
sg195
(S'01'
p577
S'06'
p578
tp579
sg194
(S'03'
p580
S'08'
p581
tp582
sg191
(S'14'
p583
S'0c'
p584
tp585
sg196
(S'13'
p586
S'0b'
p587
tp588
sg193
(S'15'
p589
g589
tp590
ssS'mysymbols'
p591
(dp592
S'Ic-bl'
p593
S'v'
p594
sS'other'
p595
S'x'
p596
sS'IIb'
p597
S'^'
p598
sS'IIb-n'
p599
S'>'
p600
sS'Ic'
p601
S's'
p602
sS'Ib'
p603
S'o'
p604
ssS'bandsnonir'
p605
(lp606
g195
ag193
ag186
ag194
ag192
ag187
ag196
ag191
asS'ebmvcfa'
p607
(dp608
S'07gr'
p609
F0.0462
sS'09iz'
p610
F0.064
sS'04aw'
p611
F0.352
sS'06aj'
p612
F0.141
sS'07ag'
p613
F0.627
sS'02ap'
p614
F0.03
sS'05kl'
p615
F1.344
sS'08bo'
p616
F0.294
sS'06lv'
p617
F0.574
sS'05kz'
p618
F0.437
sS'06F'
p619
F0.533
sS'07uy'
p620
F0.378
sS'08D'
p621
F0.572
sS'05bf'
p622
F0.05
sS'09jf'
p623
F0.045
sS'06bf'
p624
F0.368
sS'06fo'
p625
F0.201
sS'05mf'
p626
F0.231
sS'06T'
p627
F0.397
sS'07ce'
p628
F0.082
sS'07ru'
p629
F0.01
sS'03jd'
p630
F0.1
sS'07cl'
p631
F0.258
sS'09er'
p632
F0.11
sS'06el'
p633
F0.147
sS'06ep'
p634
F0.448
sS'07kj'
p635
F0.295
sS'07C'
p636
F0.65
sS'05hg'
p637
F0.244
ssS'insts'
p638
(lp639
S'shooter'
p640
aS'kepler'
p641
aS'mini'
p642
asS'mycolors'
p643
(dp644
g186
S'#0066cc'
p645
sg187
S'm'
p646
sg188
S'#FFB700'
p647
sg189
S'#A4A4A4'
p648
sg190
S'#4F088A'
p649
sg192
S'#b20000'
p650
sg195
S'k'
p651
sg194
S'#47b56c'
p652
sg191
g646
sg196
g650
sg193
g651
ssS'bands'
p653
(lp654
g195
ag193
ag186
ag194
ag192
ag187
ag196
ag191
ag190
ag188
ag189
asS'mylines'
p655
(dp656
g593
S'dotted'
p657
sg595
S'solid'
p658
sg597
g658
sg599
g658
sg601
g658
sg603
S'dashed'
p659
ssS'mytypecolors'
p660
(dp661
g593
g196
sg595
g651
sg597
S'g'
p662
sg599
S'y'
p663
sg601
g59
sg603
g651
ssS'mycolorcolors'
p664
(dp665
g45
S'#9999EE'
p666
sg33
S'#0B0B3B'
p667
sg43
g650
sg8
S'SlateBlue'
p668
sg13
g666
sg15
g646
sg23
g652
sg21
g646
sg49
g667
sg35
S'#70B8FF'
p669
sg31
g667
sg47
g667
sg37
g645
sg39
S'#FFCC80'
p670
sg51
g651
sg53
S'purple'
p671
sg41
g670
sg17
g650
sg19
g652
ssS'AonEBmV'
p672
(dp673
S'm2'
p674
F4.3
sg186
F4.315
sS'w1'
p675
F4.3
sg187
F1.94
sg188
F0.576
sg189
F0.367
sg190
F0.902
sg191
F2.086
sg192
F2.673
sg195
F5.434
sS'w2'
p676
F4.3
sS'vv'
p677
F3.315
sg194
F3.315
sg193
F5.155
sS'uu'
p678
F5.155
sg196
F2.751
ssS'instcodes'
p679
(dp680
g642
I1
sg641
I0
sg640
I0
ssS'ebmvs'
p681
(dp682
S'04ge'
p683
F0.0754
sS'04gk'
p684
F0.0247
sS'07aw'
p685
F0.0338
sS'04gt'
p686
F0.0398
sS'06gi'
p687
F0.0205
sS'04gv'
p688
F0.0286
sS'04gq'
p689
F0.0627
sg613
F0.025
sg626
F0.0153
sS'97dq'
p690
F0.0382
sS'05ek'
p691
F0.1811
sS'05eo'
p692
F0.0585
sS'98fa'
p693
F0.0382
sS'01ej'
p694
F0.046
sS'93J'
p695
F0.069
sg625
F0.025
sS'05nb'
p696
F0.032
sS'06ir'
p697
F0.0393
sS'09K'
p698
F0.0491
sS'04ff'
p699
F0.0281
sS'04fe'
p700
F0.021
sS'04ao'
p701
F0.0893
sg611
F0.018
sg615
F0.0219
sg617
F0.0245
sS'06ck'
p702
F0.0245
sS'05kf'
p703
F0.0378
sS'07hb'
p704
F0.0518
sg618
F0.046
sS'06ld'
p705
F0.0144
sS'06lc'
p706
F0.0556
sS'05da'
p707
F0.2483
sS'08hh'
p708
F0.0427
sg627
F0.0647
sS'07iq'
p709
F0.1182
sg632
F0.0389
sS'97ef'
p710
F0.0366
sS'96cb'
p711
F0.0262
sg610
F0.0729
sS'05az'
p712
F0.0097
sS'06cb'
p713
F0.0094
sS'05ar'
p714
F0.0394
sg616
F0.0513
sS'07bg'
p715
F0.0179
sS'01ai'
p716
F0.0081
sS'06jc'
p717
F0.0173
sS'06ss'
p718
F0.0178
sg619
F0.1635
sg620
F0.0194
sg622
F0.0385
sS'02ji'
p719
F0.0217
sS'97X'
p720
F0.0237
sg623
F0.0971
sg624
F0.0216
sS'06ba'
p721
F0.0452
sS'08an'
p722
F0.045
sg628
F0.02
sg629
F0.2254
sg630
F0.0784
sg631
F0.037
sS'07rz'
p723
F0.1723
sg633
F0.0973
sg634
F0.031
sg635
F0.0691
sS'08ax'
p724
F0.0186
sS'05U'
p725
F0.0143
sS'07ke'
p726
F0.0954
sS'08aq'
p727
F0.0383
sg609
F0.0535
sS'05la'
p728
F0.01
sS'94I'
p729
F0.0302
sS'95bb'
p730
F0.0948
sg612
F0.1267
sg614
F0.062
sS'98dt'
p731
F0.0219
sS'04eu'
p732
F0.0466
sS'00H'
p733
F0.1964
sS'01gd'
p734
F0.0098
sS'04dn'
p735
F0.0415
sg621
F0.0194
sS'95F'
p736
F0.0311
sS'08cw'
p737
F0.006
sS'07D'
p738
F0.2881
sg636
F0.0363
sg637
F0.0901
sS'04dk'
p739
F0.1357
sS'07I'
p740
F0.025
ssS'ebmvhost'
p741
(dp742
g609
F0.038
sg614
F0.03
sg629
F0.01
sg630
F0.1
sg611
F0.352
sg724
F0.4
sg621
F0.5406
ssS'cs'
p743
(dp744
g8
I13
sg13
I8
sg15
I7
sg17
I3
sg19
I2
sg21
I6
sg23
I5
sg25
I16
sg27
I18
sg29
I17
sg31
I11
sg33
I19
sg35
I10
sg37
I1
sg39
I9
sg41
I14
sg43
I4
sg45
I9
sg47
I11
sg49
I15
sg51
I0
sg53
I12
ssS'bandsindex'
p745
(dp746
g186
I1
sg187
I4
sg188
I8
sg189
I9
sg190
I7
sg192
I3
sg195
I0
sg194
I2
sg191
I6
sg196
I5
sg193
I0
ssS'bandsnir'
p747
(lp748
g190
ag188
ag189
asS'myshapes'
p749
(dp750
g186
g602
sg187
g600
sg188
g602
sg189
g604
sg190
g598
sg192
g594
sg195
g598
sg194
g604
sg191
S'h'
p751
sg196
S'd'
p752
sg193
g598
ssS'types'
p753
(lp754
g603
ag601
ag597
ag593
ag599
asS'cbands'
p755
(lp756
g51
ag47
ag31
ag37
ag19
ag17
ag43
ag23
ag21
ag15
ag13
ag53
ag8
ag41
ag49
ag25
ag29
ag27
aS'H-i'
p757
aS'J-H'
p758
aS'K-J'
p759
asbsS'n'
p760
NsS'dr15'
p761
F0.0
sS'photometry'
p762
(dp763
g186
(dp764
g94
g56
(g57
(I0
tp765
g59
tp766
Rp767
(I1
(I0
tp768
g63
(S'f8'
p769
I0
I1
tp770
Rp771
(I3
S'<'
p772
NNNI-1
I-1
I0
tp773
bI00
g3
tp774
bsS'camsys'
p775
(lp776
g3
asS'natmag'
p777
g56
(g57
(I0
tp778
g59
tp779
Rp780
(I1
(I0
tp781
g771
I00
g3
tp782
bsg96
g56
(g57
(I0
tp783
g59
tp784
Rp785
(I1
(I0
tp786
g771
I00
g3
tp787
bsS'extmag'
p788
g56
(g57
(I0
tp789
g59
tp790
Rp791
(I1
(I0
tp792
g771
I00
g3
tp793
bsg98
g56
(g57
(I0
tp794
g59
tp795
Rp796
(I1
(I0
tp797
g771
I00
g3
tp798
bssg187
(dp799
g94
g56
(g57
(I0
tp800
g59
tp801
Rp802
(I1
(I0
tp803
g771
I00
g3
tp804
bsg775
(lp805
g3
asg777
g56
(g57
(I0
tp806
g59
tp807
Rp808
(I1
(I0
tp809
g771
I00
g3
tp810
bsg96
g56
(g57
(I0
tp811
g59
tp812
Rp813
(I1
(I0
tp814
g771
I00
g3
tp815
bsg788
g56
(g57
(I0
tp816
g59
tp817
Rp818
(I1
(I0
tp819
g771
I00
g3
tp820
bsg98
g56
(g57
(I0
tp821
g59
tp822
Rp823
(I1
(I0
tp824
g771
I00
g3
tp825
bssg188
(dp826
g94
g56
(g57
(I0
tp827
g59
tp828
Rp829
(I1
(I0
tp830
g771
I00
g3
tp831
bsg775
(lp832
g3
asg777
g56
(g57
(I0
tp833
g59
tp834
Rp835
(I1
(I0
tp836
g771
I00
g3
tp837
bsg96
g56
(g57
(I0
tp838
g59
tp839
Rp840
(I1
(I0
tp841
g771
I00
g3
tp842
bsg788
g56
(g57
(I0
tp843
g59
tp844
Rp845
(I1
(I0
tp846
g771
I00
g3
tp847
bsg98
g56
(g57
(I0
tp848
g59
tp849
Rp850
(I1
(I0
tp851
g771
I00
g3
tp852
bssg189
(dp853
g94
g56
(g57
(I0
tp854
g59
tp855
Rp856
(I1
(I0
tp857
g771
I00
g3
tp858
bsg775
(lp859
g3
asg777
g56
(g57
(I0
tp860
g59
tp861
Rp862
(I1
(I0
tp863
g771
I00
g3
tp864
bsg96
g56
(g57
(I0
tp865
g59
tp866
Rp867
(I1
(I0
tp868
g771
I00
g3
tp869
bsg788
g56
(g57
(I0
tp870
g59
tp871
Rp872
(I1
(I0
tp873
g771
I00
g3
tp874
bsg98
g56
(g57
(I0
tp875
g59
tp876
Rp877
(I1
(I0
tp878
g771
I00
g3
tp879
bssg190
(dp880
g94
g56
(g57
(I0
tp881
g59
tp882
Rp883
(I1
(I0
tp884
g771
I00
g3
tp885
bsg775
(lp886
g3
asg777
g56
(g57
(I0
tp887
g59
tp888
Rp889
(I1
(I0
tp890
g771
I00
g3
tp891
bsg96
g56
(g57
(I0
tp892
g59
tp893
Rp894
(I1
(I0
tp895
g771
I00
g3
tp896
bsg788
g56
(g57
(I0
tp897
g59
tp898
Rp899
(I1
(I0
tp900
g771
I00
g3
tp901
bsg98
g56
(g57
(I0
tp902
g59
tp903
Rp904
(I1
(I0
tp905
g771
I00
g3
tp906
bssg191
(dp907
g94
g56
(g57
(I0
tp908
g59
tp909
Rp910
(I1
(I0
tp911
g771
I00
g3
tp912
bsg775
(lp913
g3
asg777
g56
(g57
(I0
tp914
g59
tp915
Rp916
(I1
(I0
tp917
g771
I00
g3
tp918
bsg96
g56
(g57
(I0
tp919
g59
tp920
Rp921
(I1
(I0
tp922
g771
I00
g3
tp923
bsg788
g56
(g57
(I0
tp924
g59
tp925
Rp926
(I1
(I0
tp927
g771
I00
g3
tp928
bsg98
g56
(g57
(I0
tp929
g59
tp930
Rp931
(I1
(I0
tp932
g771
I00
g3
tp933
bssg192
(dp934
g94
g56
(g57
(I0
tp935
g59
tp936
Rp937
(I1
(I0
tp938
g771
I00
g3
tp939
bsg775
(lp940
g3
asg777
g56
(g57
(I0
tp941
g59
tp942
Rp943
(I1
(I0
tp944
g771
I00
g3
tp945
bsg96
g56
(g57
(I0
tp946
g59
tp947
Rp948
(I1
(I0
tp949
g771
I00
g3
tp950
bsg788
g56
(g57
(I0
tp951
g59
tp952
Rp953
(I1
(I0
tp954
g771
I00
g3
tp955
bsg98
g56
(g57
(I0
tp956
g59
tp957
Rp958
(I1
(I0
tp959
g771
I00
g3
tp960
bssg193
(dp961
g94
g56
(g57
(I0
tp962
g59
tp963
Rp964
(I1
(I0
tp965
g771
I00
g3
tp966
bsg775
(lp967
g3
asg777
g56
(g57
(I0
tp968
g59
tp969
Rp970
(I1
(I0
tp971
g771
I00
g3
tp972
bsg96
g56
(g57
(I0
tp973
g59
tp974
Rp975
(I1
(I0
tp976
g771
I00
g3
tp977
bsg788
g56
(g57
(I0
tp978
g59
tp979
Rp980
(I1
(I0
tp981
g771
I00
g3
tp982
bsg98
g56
(g57
(I0
tp983
g59
tp984
Rp985
(I1
(I0
tp986
g771
I00
g3
tp987
bssg194
(dp988
g94
g56
(g57
(I0
tp989
g59
tp990
Rp991
(I1
(I0
tp992
g771
I00
g3
tp993
bsg775
(lp994
g3
asg777
g56
(g57
(I0
tp995
g59
tp996
Rp997
(I1
(I0
tp998
g771
I00
g3
tp999
bsg96
g56
(g57
(I0
tp1000
g59
tp1001
Rp1002
(I1
(I0
tp1003
g771
I00
g3
tp1004
bsg788
g56
(g57
(I0
tp1005
g59
tp1006
Rp1007
(I1
(I0
tp1008
g771
I00
g3
tp1009
bsg98
g56
(g57
(I0
tp1010
g59
tp1011
Rp1012
(I1
(I0
tp1013
g771
I00
g3
tp1014
bssg195
(dp1015
g94
g56
(g57
(I0
tp1016
g59
tp1017
Rp1018
(I1
(I0
tp1019
g771
I00
g3
tp1020
bsg775
(lp1021
g3
asg777
g56
(g57
(I0
tp1022
g59
tp1023
Rp1024
(I1
(I0
tp1025
g771
I00
g3
tp1026
bsg96
g56
(g57
(I0
tp1027
g59
tp1028
Rp1029
(I1
(I0
tp1030
g771
I00
g3
tp1031
bsg788
g56
(g57
(I0
tp1032
g59
tp1033
Rp1034
(I1
(I0
tp1035
g771
I00
g3
tp1036
bsg98
g56
(g57
(I0
tp1037
g59
tp1038
Rp1039
(I1
(I0
tp1040
g771
I00
g3
tp1041
bssg196
(dp1042
g94
g56
(g57
(I0
tp1043
g59
tp1044
Rp1045
(I1
(I0
tp1046
g771
I00
g3
tp1047
bsg775
(lp1048
g3
asg777
g56
(g57
(I0
tp1049
g59
tp1050
Rp1051
(I1
(I0
tp1052
g771
I00
g3
tp1053
bsg96
g56
(g57
(I0
tp1054
g59
tp1055
Rp1056
(I1
(I0
tp1057
g771
I00
g3
tp1058
bsg788
g56
(g57
(I0
tp1059
g59
tp1060
Rp1061
(I1
(I0
tp1062
g771
I00
g3
tp1063
bsg98
g56
(g57
(I0
tp1064
g59
tp1065
Rp1066
(I1
(I0
tp1067
g771
I00
g3
tp1068
bsssb.