(isnclasses
mysn
p0
(dp1
S'camsystem'
p2
S''
p3
sS'dVmax'
p4
cnumpy.core.multiarray
scalar
p5
(cnumpy
dtype
p6
(S'f8'
p7
I0
I1
tp8
Rp9
(I3
S'<'
p10
NNNI-1
I-1
I0
tp11
bS'.\xceC\xdd\xb8\xef\t@'
p12
tp13
Rp14
sS'nomaxdate'
p15
I00
sS'maxcolors'
p16
(dp17
S'V-K'
p18
(dp19
S'color'
p20
Fnan
sS'epoch'
p21
F0.0
sS'dcolor'
p22
Fnan
ssS'V-H'
p23
(dp24
g20
Fnan
sg21
F0.0
sg22
Fnan
ssS'V-I'
p25
(dp26
g20
Fnan
sg21
F0.0
sg22
Fnan
ssS'R-I'
p27
(dp28
g20
Fnan
sg21
F0.0
sg22
Fnan
ssS'V-R'
p29
(dp30
g20
Fnan
sg21
F0.0
sg22
Fnan
ssS'V-i'
p31
(dp32
g20
Fnan
sg21
F0.0
sg22
Fnan
ssS'V-r'
p33
(dp34
g20
Fnan
sg21
F0.0
sg22
Fnan
ssS'B-J'
p35
(dp36
g20
Fnan
sg21
F0.0
sg22
Fnan
ssS'B-K'
p37
(dp38
g20
Fnan
sg21
F0.0
sg22
Fnan
ssS'B-H'
p39
(dp40
g20
Fnan
sg21
F0.0
sg22
Fnan
ssS'B-I'
p41
(dp42
g20
Fnan
sg21
F0.0
sg22
Fnan
ssS'B-R'
p43
(dp44
g20
Fnan
sg21
F0.0
sg22
Fnan
ssS'J-K'
p45
(dp46
g20
Fnan
sg21
F0.0
sg22
Fnan
ssS'B-V'
p47
(dp48
g20
Fnan
sg21
F0.0
sg22
Fnan
ssS'H-J'
p49
(dp50
g20
Fnan
sg21
F0.0
sg22
Fnan
ssS'H-K'
p51
(dp52
g20
Fnan
sg21
F0.0
sg22
Fnan
ssS'r-i'
p53
(dp54
g20
Fnan
sg21
F0.0
sg22
Fnan
ssS'I-H'
p55
(dp56
g20
Fnan
sg21
F0.0
sg22
Fnan
ssS'B-i'
p57
(dp58
g20
Fnan
sg21
F0.0
sg22
Fnan
ssS'B-r'
p59
(dp60
g20
Fnan
sg21
F0.0
sg22
Fnan
ssS'U-B'
p61
(dp62
g20
Fnan
sg21
F0.0
sg22
Fnan
ssS'r-K'
p63
(dp64
g20
Fnan
sg21
F0.0
sg22
Fnan
sssS'colors'
p65
(dp66
g18
(dp67
S'mjd'
p68
(lp69
sS'dmag'
p70
(lp71
sS'mag'
p72
(lp73
ssg23
(dp74
g68
(lp75
sg70
(lp76
sg72
(lp77
ssg25
(dp78
g68
(lp79
sg70
(lp80
sg72
(lp81
ssg27
(dp82
g68
(lp83
sg70
(lp84
sg72
(lp85
ssg29
(dp86
g68
(lp87
sg70
(lp88
sg72
(lp89
ssg31
(dp90
g68
(lp91
sg70
(lp92
sg72
(lp93
ssg33
(dp94
g68
(lp95
sg70
(lp96
sg72
(lp97
ssg35
(dp98
g68
(lp99
sg70
(lp100
sg72
(lp101
ssg37
(dp102
g68
(lp103
sg70
(lp104
sg72
(lp105
ssg39
(dp106
g68
(lp107
sg70
(lp108
sg72
(lp109
ssg41
(dp110
g68
(lp111
sg70
(lp112
sg72
(lp113
ssg43
(dp114
g68
(lp115
sg70
(lp116
sg72
(lp117
ssg45
(dp118
g68
(lp119
sg70
(lp120
sg72
(lp121
ssg47
(dp122
g68
(lp123
sg70
(lp124
sg72
(lp125
ssg49
(dp126
g68
(lp127
sg70
(lp128
sg72
(lp129
ssg51
(dp130
g68
(lp131
sg70
(lp132
sg72
(lp133
ssg53
(dp134
g68
(lp135
sg70
(lp136
sg72
(lp137
ssg55
(dp138
g68
(lp139
sg70
(lp140
sg72
(lp141
ssg57
(dp142
g68
(lp143
sg70
(lp144
sg72
(lp145
ssg59
(dp146
g68
(lp147
sg70
(lp148
sg72
(lp149
ssg61
(dp150
g68
(lp151
sg70
(lp152
sg72
(lp153
ssg63
(dp154
g68
(lp155
sg70
(lp156
sg72
(lp157
sssS'filters'
p158
(dp159
S'B'
p160
I0
sS'I'
p161
I0
sS'H'
p162
I0
sS'K'
p163
I0
sS'J'
p164
I0
sS'i'
p165
I0
sS'R'
p166
I0
sS'u'
p167
I0
sS'V'
p168
I0
sS'U'
p169
I0
sS'r'
p170
I0
ssS'snnameshort'
p171
S'07iq'
p172
sS'templsol'
p173
(dp174
g160
Nsg161
Nsg162
Nsg163
Nsg164
Nsg165
Nsg166
Nsg167
Nsg168
Nsg169
Nsg170
NssS'Vmaxmag'
p175
F0.0
sS'Vmaxflag'
p176
I00
sS'stats'
p177
(dp178
g160
(isnclasses
snstats
p179
(dp180
S'polyrchisq'
p181
F0.0
sS'Rdm15'
p182
F0.0
sS'tlim'
p183
(lp184
F0.0
aF0.0
asS'maglim'
p185
(lp186
F0.0
aF0.0
asS'templresid'
p187
NsS'polyresid'
p188
NsS'dm15'
p189
F0.0
sS'polydeg'
p190
F0.0
sS'success'
p191
I0
sS'flagmiss15'
p192
I0
sS'flagmissmax'
p193
I0
sS'm15data'
p194
(lp195
F0.0
aF0.0
asS'band'
p196
g3
sS'templrchisq'
p197
F0.0
sS'flagbadfit'
p198
I0
sS'Rdm15lin'
p199
(lp200
F0.0
aF0.0
asS'templatefit'
p201
(dp202
S'stretch'
p203
F1.0
sS'yoffset'
p204
F0.0
sS'xoffset'
p205
F0.0
sS'xstretch'
p206
F1.0
ssS'dm15lin'
p207
(lp208
F0.0
aF0.0
asS'maxjd'
p209
(lp210
F0.0
aF0.0
asS'norm'
p211
F0.0
sg203
F0.0
sbsg161
(isnclasses
snstats
p212
(dp213
g181
F0.0
sg182
F0.0
sg183
(lp214
F0.0
aF0.0
asg185
(lp215
F0.0
aF0.0
asg187
Nsg188
Nsg189
F0.0
sg190
F0.0
sg191
I0
sg192
I0
sg193
I0
sg194
(lp216
F0.0
aF0.0
asg196
g3
sg197
F0.0
sg198
I0
sg199
(lp217
F0.0
aF0.0
asg201
(dp218
g203
F1.0
sg204
F0.0
sg205
F0.0
sg206
F1.0
ssg207
(lp219
F0.0
aF0.0
asg209
(lp220
F0.0
aF0.0
asg211
F0.0
sg203
F0.0
sbsg162
(isnclasses
snstats
p221
(dp222
g181
F0.0
sg182
F0.0
sg183
(lp223
F0.0
aF0.0
asg185
(lp224
F0.0
aF0.0
asg187
Nsg188
Nsg189
F0.0
sg190
F0.0
sg191
I0
sg192
I0
sg193
I0
sg194
(lp225
F0.0
aF0.0
asg196
g3
sg197
F0.0
sg198
I0
sg199
(lp226
F0.0
aF0.0
asg201
(dp227
g203
F1.0
sg204
F0.0
sg205
F0.0
sg206
F1.0
ssg207
(lp228
F0.0
aF0.0
asg209
(lp229
F0.0
aF0.0
asg211
F0.0
sg203
F0.0
sbsg163
(isnclasses
snstats
p230
(dp231
g181
F0.0
sg182
F0.0
sg183
(lp232
F0.0
aF0.0
asg185
(lp233
F0.0
aF0.0
asg187
Nsg188
Nsg189
F0.0
sg190
F0.0
sg191
I0
sg192
I0
sg193
I0
sg194
(lp234
F0.0
aF0.0
asg196
g3
sg197
F0.0
sg198
I0
sg199
(lp235
F0.0
aF0.0
asg201
(dp236
g203
F1.0
sg204
F0.0
sg205
F0.0
sg206
F1.0
ssg207
(lp237
F0.0
aF0.0
asg209
(lp238
F0.0
aF0.0
asg211
F0.0
sg203
F0.0
sbsg164
(isnclasses
snstats
p239
(dp240
g181
F0.0
sg182
F0.0
sg183
(lp241
F0.0
aF0.0
asg185
(lp242
F0.0
aF0.0
asg187
Nsg188
Nsg189
F0.0
sg190
F0.0
sg191
I0
sg192
I0
sg193
I0
sg194
(lp243
F0.0
aF0.0
asg196
g3
sg197
F0.0
sg198
I0
sg199
(lp244
F0.0
aF0.0
asg201
(dp245
g203
F1.0
sg204
F0.0
sg205
F0.0
sg206
F1.0
ssg207
(lp246
F0.0
aF0.0
asg209
(lp247
F0.0
aF0.0
asg211
F0.0
sg203
F0.0
sbsg165
(isnclasses
snstats
p248
(dp249
g181
F0.0
sg182
F0.0
sg183
(lp250
F0.0
aF0.0
asg185
(lp251
F0.0
aF0.0
asg187
Nsg188
Nsg189
F0.0
sg190
F0.0
sg191
I0
sg192
I0
sg193
I0
sg194
(lp252
F0.0
aF0.0
asg196
g3
sg197
F0.0
sg198
I0
sg199
(lp253
F0.0
aF0.0
asg201
(dp254
g203
F1.0
sg204
F0.0
sg205
F0.0
sg206
F1.0
ssg207
(lp255
F0.0
aF0.0
asg209
(lp256
F0.0
aF0.0
asg211
F0.0
sg203
F0.0
sbsg166
(isnclasses
snstats
p257
(dp258
g181
F0.0
sg182
F0.0
sg183
(lp259
F0.0
aF0.0
asg185
(lp260
F0.0
aF0.0
asg187
Nsg188
Nsg189
F0.0
sg190
F0.0
sg191
I0
sg192
I0
sg193
I0
sg194
(lp261
F0.0
aF0.0
asg196
g3
sg197
F0.0
sg198
I0
sg199
(lp262
F0.0
aF0.0
asg201
(dp263
g203
F1.0
sg204
F0.0
sg205
F0.0
sg206
F1.0
ssg207
(lp264
F0.0
aF0.0
asg209
(lp265
F0.0
aF0.0
asg211
F0.0
sg203
F0.0
sbsg167
(isnclasses
snstats
p266
(dp267
g181
F0.0
sg182
F0.0
sg183
(lp268
F0.0
aF0.0
asg185
(lp269
F0.0
aF0.0
asg187
Nsg188
Nsg189
F0.0
sg190
F0.0
sg191
I0
sg192
I0
sg193
I0
sg194
(lp270
F0.0
aF0.0
asg196
g3
sg197
F0.0
sg198
I0
sg199
(lp271
F0.0
aF0.0
asg201
(dp272
g203
F1.0
sg204
F0.0
sg205
F0.0
sg206
F1.0
ssg207
(lp273
F0.0
aF0.0
asg209
(lp274
F0.0
aF0.0
asg211
F0.0
sg203
F0.0
sbsg168
(isnclasses
snstats
p275
(dp276
g181
F0.0
sg182
F0.0
sg183
(lp277
F0.0
aF0.0
asg185
(lp278
F0.0
aF0.0
asg187
Nsg188
Nsg189
F0.0
sg190
F0.0
sg191
I0
sg192
I0
sg193
I0
sg194
(lp279
F0.0
aF0.0
asg196
g3
sg197
F0.0
sg198
I0
sg199
(lp280
F0.0
aF0.0
asg201
(dp281
g203
F1.0
sg204
F0.0
sg205
F0.0
sg206
F1.0
ssg207
(lp282
F0.0
aF0.0
asg209
(lp283
F0.0
aF0.0
asg211
F0.0
sg203
F0.0
sbsg169
(isnclasses
snstats
p284
(dp285
g181
F0.0
sg182
F0.0
sg183
(lp286
F0.0
aF0.0
asg185
(lp287
F0.0
aF0.0
asg187
Nsg188
Nsg189
F0.0
sg190
F0.0
sg191
I0
sg192
I0
sg193
I0
sg194
(lp288
F0.0
aF0.0
asg196
g3
sg197
F0.0
sg198
I0
sg199
(lp289
F0.0
aF0.0
asg201
(dp290
g203
F1.0
sg204
F0.0
sg205
F0.0
sg206
F1.0
ssg207
(lp291
F0.0
aF0.0
asg209
(lp292
F0.0
aF0.0
asg211
F0.0
sg203
F0.0
sbsg170
(isnclasses
snstats
p293
(dp294
g181
F0.0
sg182
F0.0
sg183
(lp295
F0.0
aF0.0
asg185
(lp296
F0.0
aF0.0
asg187
Nsg188
Nsg189
F0.0
sg190
F0.0
sg191
I0
sg192
I0
sg193
I0
sg194
(lp297
F0.0
aF0.0
asg196
g3
sg197
F0.0
sg198
I0
sg199
(lp298
F0.0
aF0.0
asg201
(dp299
g203
F1.0
sg204
F0.0
sg205
F0.0
sg206
F1.0
ssg207
(lp300
F0.0
aF0.0
asg209
(lp301
F0.0
aF0.0
asg211
F0.0
sg203
F0.0
sbssS'lc'
p302
cnumpy.core.multiarray
_reconstruct
p303
(cnumpy
ndarray
p304
(I0
tp305
S'b'
p306
tp307
Rp308
(I1
(I145
tp309
g6
(S'V18'
p310
I0
I1
tp311
Rp312
(I3
S'|'
p313
N(S'photcode'
p314
S'mjd'
p315
S'mag'
p316
S'dmag'
p317
S'ccmag'
p318
tp319
(dp320
g315
(g6
(S'f4'
p321
I0
I1
tp322
Rp323
(I3
S'<'
p324
NNNI-1
I-1
I0
tp325
bI2
tp326
sg318
(g323
I14
tp327
sg316
(g323
I6
tp328
sg314
(g6
(S'S2'
p329
I0
I1
tp330
Rp331
(I3
S'|'
p332
NNNI2
I1
I0
tp333
bI0
tp334
sg317
(g323
I10
tp335
sI18
I1
I16
tp336
bI00
S'02q[TG\x08,\x9cANb\x90=0\xbb\x9cA02~aTG\x10X\x9aA1\x08\xac=\xd9\xbd\x9aA02\x7fkTG\xb0r\x9dA5^\xba=c\xee\x9dA02|\x80TG!\xb0\x9bA\x14\xae\xc7=Y\x06\x9cA02}\x81TG\x98\xee\x9bA\x83\xc0\xca=\xefI\x9cA02r\x82TG\xf8S\x9aA\xa8\xc6K>\x15\x8c\x9aA02{\x86TG#[\x9eA\x12\x83\xc0=\xe3\xc7\x9eA02\x88\x87TGq=\x9eA\xd9\xce\xf7=@\xa4\x9eA02\x86\x89TG\xf6(\x9eA\xcd\xcc\xcc=\x97\x90\x9eA02\x82\x8cTG\x83\xc0\x9fA`\xe5\xd0=\xd74\xa0A02{\x8dTGb\x10\x9fA\x12\x83\xc0=\xf4}\x9fA02\x86\x8fTG\xf8\xd3\x9fA\xcd\xcc\xcc=\xe3G\xa0A02`\x90TG\x0e-\xa0Ad;\xdf=4\xa2\xa0A02W\x93TG\xa4p\x9fAsh\x11>K\xd9\x9fA02a\x95TG\xdfO\xa1A\x8f\xc2\xf5=}\xd0\xa1A02m\x97TG+\x87\xa0A;\xdf\xcf=\x8b\xfd\xa0A02h\x99TG\xb8\x1e\x9dA=\n\xd7=TR\x9dA02x\xa5TG\x96C\xa0AV\x0e->(\x8f\xa0A02\x83\xa6TG`\xe5\xa1A\xbe\x9f\x1a>}P\xa2A02x\xa7TG^\xba\xa2A\x98n\x12>\xd1"\xa3A02f\xa8TG\xa8F\xa2A\x12\x83\x00>\xaf\xa5\xa2A02q\xb0TG\xb0r\xa2ANb\x10>\xd6\xd6\xa2A02f\xb3TG\xa8F\xa3A-\xb2\x1d>\xf9\xb1\xa3A02F\xb4TG\xf0\xa7\xa3A\xa2E6>\x1e\x16\xa4A02P\xb6TG\xa6\x9b\xa0A7\x89\x81>&\xe4\xa0A02^\xbdTG!\xb0\xa2AH\xe1z>\x91\xfe\xa2A02L\xbfTGZd\xa5A\xaeGa>\x9b\xd5\xa5A02@\xc2TG\xecQ\xa4A\xc9v>>\xa5\xac\xa4A021\xc4TGL7\xa3A\'1\x88>\xd5\x89\xa3A02]\xcbTGh\x91\xa4A\xd9\xce7>\xc1\xca\xa4A02R\xcdTG\x81\x95\xa4A}?5><\xce\xa4A02J\xceTG\x91\xed\xa6A\xd7\xa3p>\xab>\xa7A02D\xd0TGd;\xa4A\xaa\xf1R>\x82s\xa4A02Q\xd4TGV\x0e\xa2A\x8blg>"\x0e\xa2A02Q\xd8TG\x8d\x97\xa0A\x91\xed|>\xb9|\xa0A03p[TG33\x91A\x8f\xc2\xf5<\xf4\xec\x90A03}aTGD\x8b\x92A\xe3\xa5\x1b=KY\x92A03~kTG\xdb\xf9\x93A\x7fj<=<\xbd\x93A03{\x80TG\x87\x16\x95A\x7fj<=W\xec\x94A03|\x81TG\x9e\xef\x94A\x12\x83@=\xc4\xc2\x94A03q\x82TG\x1f\x05\x96A\xd3M\xe2=\xaa\xe0\x95A03y\x86TG\x19\x04\x96A1\x08,=\xa5\xce\x95A03\x87\x87TG)\\\x96A\x1b/]=\xc7)\x96A03\x85\x89TGL7\x96A1\x08,=\x81\x04\x96A03\x80\x8cTG\n\xd7\x96A\xc5 0=\xe7\x9d\x96A03y\x8dTG\x08\xac\x96A\xc5 0=+v\x96A03\x84\x8fTG\xaa\xf1\x96A\xc5 0=\xbb\xb8\x96A03`\x90TG33\x97A\x7fj<=\xa7\xf9\x96A03V\x93TG\x7fj\x97A9\xb4H=\x177\x97A03_\x95TG\xbct\x97A\x7fj<=\xa85\x97A03k\x97TG\xb0r\x97A\xecQ8=\x868\x97A03g\x99TG\xf6(\x99A\x02+\x87=\x97\xff\x98A03w\xa5TG\xdby\x9aA\xc7K\xb7=\xcaT\x9aA03\x81\xa6TG\x14\xae\x99AP\x8d\x97=ry\x99A03v\xa7TGR\xb8\x9aA\x96C\x8b=\x1f\x85\x9aA03e\xa8TG\xf4\xfd\x9aA\xe3\xa5\x9b=B\xcf\x9aA03o\xb0TG\xa8\xc6\x9aA\xfc\xa9q=\x81\x95\x9aA03d\xb3TGV\x0e\x9bA\xbct\x93=\xb4\xd9\x9aA03E\xb4TG\xc7K\x9eA\'1\x08>_)\x9eA03N\xb6TGV\x0e\x9bA\x7fj\xbc=\x01\xde\x9aA03K\xb8TG\x19\x84\x9bA\x8blg>\xf5[\x9bA03]\xbdTG\\\x8f\x9eA\xf8Sc>\xf1t\x9eA03J\xbfTGF\xb6\x9cA\xa2E\xb6=l\x89\x9cA03>\xc2TG5^\x9dAB`\xe5=\xc41\x9dA030\xc4TG\xee\xfc\x9aA\xd3M">K\xc8\x9aA03[\xcbTG\x0e-\xa0A\x83\xc0\n>\x00\x11\xa0A03Q\xcdTG\xdfO\xa2AP\x8d\x17>UA\xa2A03I\xceTGR\xb8\xa0AJ\x0c\x02>\xda\x9b\xa0A03B\xd0TGh\x91\x9eA\x8f\xc2\xf5=)m\x9eA03P\xd4TGb\x10\xa2Ab\x10X>b\x10\xa2A03S\xe0TG\xc9v\xa3A\xcf\xf7S>Gr\xa3A13o[TG\x02+\x8dAX9\xb4<\xb5&\x8dA13|aTG\x14\xae\x8eA\x1b/\xdd<d\xbb\x8eA13}kTG\xcb\xa1\x8fA\xf4\xfd\xd4<=\xac\x8fA13z\x80TGF\xb6\x92A\x96C\x0b=\xff\xb2\x92A13{\x81TG\x93\x18\x93A\x02+\x07=\xd5\t\x93A13p\x82TG\x1b/\x93A\xdfO\x8d=\xef8\x93A13y\x86TGo\x12\x93Ao\x12\x03=P\r\x93A13\x87\x87TG\xaeG\x93A\x02+\x07=\xaeG\x93A13\x84\x89TGu\x93\x93A)\\\x0f=\xe1\x8b\x93A13\x7f\x8cTGw\xbe\x93Ao\x12\x03=\x1d\xb8\x93A13y\x8dTG\xac\x1c\x94A\x96C\x0b=\xcb\x10\x94A13\x83\x8fTG\x8bl\x94A\x02+\x07=\xfb\\\x94A13^\x90TG\x89A\x94A\xbct\x13=R8\x94A13U\x93TG\xa8\xc6\x94A\x96C\x0b=w\xbe\x94A13_\x95TG\xd7\xa3\x94AP\x8d\x17=\xd7\x92\x94A13k\x97TGo\x12\x95A)\\\x0f=.\xff\x94A13f\x99TG\xee|\x95A1\x08,=\xc5\x8f\x95A13v\xa5TG\xc7\xcb\x96Ah\x91m= \xe3\x96A13\x80\xa6TG\x0c\x02\x97A\xc5 0=>\xf9\x96A13u\xa7TG\x91\xed\x96A\xecQ8=l\xf8\x96A13d\xa8TGd;\x97A\xa6\x9bD=XJ\x97A13o\xb0TGL7\x98A\x7fj<=!0\x98A13d\xb3TG\xb4\xc8\x98A\xf4\xfdT=X\xb9\x98A13D\xb4TG\xc9v\x98A\x87\x16Y=\xc6m\x98A13N\xb6TG\x17\xd9\x98A\xd5xi=\x01\xcd\x98A13^\xb7TG\xdb\xf9\x96Ay\xe9&>\xa9\x13\x97A13P\xb8TG\nW\x97AF\xb63>\x82s\x97A13\\\xbdTG\x08,\x9aAd;\xdf=}.\x9aA13I\xbfTGu\x93\x99Ah\x91m=\x02\x9a\x99A13=\xc2TGH\xe1\x9aA\x9a\x99\x99=\x98\xdd\x9aA130\xc4TG\x1f\x05\x9aAH\xe1\xfa=\xac\x0b\x9aA13[\xcbTG\xd3M\x9bAP\x8d\x97=o\x81\x9bA13P\xcdTGd;\x9bA\xb8\x1e\x85=vq\x9bA13H\xceTG\xc7K\x9bAo\x12\x83=1\x88\x9bA13B\xd0TG\xa6\x9b\x9cA\xc1\xca\xa1=\xae\xb6\x9cA13O\xd4TG7\x89\x9fA\xa6\x9b\x84>\x96\xb2\x9fA13P\xd8TG\xa2E\x9fA\x9a\x99\x19>\xe4\x83\x9fA13R\xe0TGd;\x9fA=\n\xd7=P|\x9fA14o[TG\x12\x83\x8cA\x7fj\xbc<aT\x8cA14{aTG\n\xd7\x8dA\xf4\xfd\xd4<\x0e\xbe\x8dA14|kTG\nW\x8fAo\x12\x03=-2\x8fA14z\x80TGH\xe1\x92A\xe7\xfb)=\x89\xc1\x92A14{\x81TG\x81\x95\x91A-\xb2\x1d=\xdby\x91A14o\x82TG\xd9\xce\x92A\xf4\xfd\xd4=0\xbb\x92A14x\x86TG\xbe\x9f\x92A\x96C\x0b=J{\x92A14\x86\x87TG\xe7\xfb\x92A\x9e\xef\'=Q\xda\x92A14\x84\x89TG/]\x93A\x9e\xef\'=\x1d8\x93A14\x7f\x8cTGw>\x93Aw\xbe\x1f=$\x17\x93A14x\x8dTG\x0c\x82\x93Aw\xbe\x1f=\xc0[\x93A14\x83\x8fTG\xba\xc9\x93A-\xb2\x1d=\'\xa0\x93A14^\x90TG\xac\x1c\x94A\xe7\xfb)=\xde\xf1\x93A14U\x93TG{\x94\x94A1\x08,=\xccn\x94A14^\x95TGF6\x95AX94=\x9d\x00\x95A14j\x97TG{\x14\x95A\xc1\xca!=\xc3\xe4\x94A14e\x99TG\x1b\xaf\x95A\xf8Sc=\xc2\x97\x95A14u\xa5TGT\xe3\x95A\x8f\xc2u=\xa8\xd7\x95A14\x80\xa6TG\xd1\xa2\x96AX94="}\x96A14u\xa7TGH\xe1\x96A\xd1"[=\x89\xc1\x96A14c\xa8TG\xf0\'\x97A\x17\xd9N=\x1b\r\x97A14n\xb0TG\xd1"\x98A\x93\x18\x84=]\xfe\x97A14c\xb3TG\x96C\x98AF\xb6s=C\x1c\x98A14C\xb4TG\xec\xd1\x99Aq=\x8a=\xc5\xa0\x99A14M\xb6TGN\xe2\x98A\xbct\x93=\xcd\xbb\x98A14\\\xbdTG\x17\xd9\x9aA\xfe\xd4\xf8=\xfb\xba\x9aA14I\xbfTG\xc9\xf6\x9aAT\xe3\xa5=\x83\xd1\x9aA14=\xc2TGR\xb8\x99AT\xe3\xa5=\xb8\x9e\x99A14/\xc4TG\x7fj\x9bA\xd9\xce7>KH\x9bA14Z\xcbTG\x12\x83\x9bA\xd5x\xe9=\x06\x81\x9bA14O\xcdTG\xcb!\x9cA\xc5 \xb0=\xac\x1c\x9cA14G\xceTG\xe9&\x9cA\xecQ\xb8=\x0b$\x9cA14A\xd0TG\x17\xd9\x9cA\xc7K\xb7=<\xce\x9cA14N\xd4TGu\x93\x9aA\x00\x00\x00>O\xc0\x9aA14O\xd8TG\xfc\xa9\x9bA\xdfO\r>#\xdb\x9bA14Q\xe0TG\xa6\x9b\x9fA\xbe\x9f\x1a>\xe0\xad\x9fA'
p337
tp338
bsS'Rmax'
p339
(dp340
sS'polyfit'
p341
NsS'ebmvtot'
p342
F0.0
sS'Vmax'
p343
F2454380.06
sS'type'
p344
S'Ic/Ic-bl'
p345
sS'metadata'
p346
(dp347
g3
S'0.677'
p348
sS'cfaUmaxerr'
p349
S'-'
p350
sS'v2 Fe II 5169 date'
p351
g350
sS'D11Rmax'
p352
g3
sS'v_z'
p353
S'4003'
p354
sS'E(b-v)hosterr'
p355
S'--'
p356
sS'v1 Fe II 5018 date'
p357
g350
sS'cfaRmaxerr'
p358
g350
sS'CfA RJD bootstrap'
p359
S'<0000000'
p360
sS'inclination from axes sdss'
p361
S'--'
p362
sS'my E(B-V)host from inclination'
p363
S'0.302530272891326'
p364
sS'RA'
p365
S'6:13:32'
p366
sS'cfaVmaxerr'
p367
g350
sS'Dm15 (with Lyman BC correction)'
p368
g3
sS'CfA E(B-V)host'
p369
g3
sS'lcvquality'
p370
S'2'
p371
sS'v1 Fe II 5169 '
p372
g350
sS'decdeg'
p373
S'69.7303333333'
p374
sS'cfaVmax'
p375
g350
sS'CfA VJD bootstrap error'
p376
S'--'
p377
sS'MaxVJD'
p378
S'<2454363.9'
p379
sS'D11Vmaxdate'
p380
g3
sS'v1 Fe II 5018 '
p381
g350
sS'D11Rmaxdate'
p382
g3
sS'D11Rmaxerr'
p383
g3
sS'Fe II 5169 at maximum (linear interpolation error)'
p384
S'#VALUE!'
p385
sS'D11Vmaxerr'
p386
g3
sS'axis ratio sdss'
p387
S'--'
p388
sS'D11Rmaxdateerr'
p389
g3
sS'v2 FeII 5018 date'
p390
g350
sS'DEC'
p391
S'+69:43:49.2'
p392
sS'Type'
p393
g345
sS'cfaJmaxerr'
p394
g350
sS'SNname'
p395
S'sn2007iq'
p396
sS'Fe II 5169 at maximum (linear interpolation)'
p397
g350
sS'inclination'
p398
S'--'
p399
sS'cfaHmaxerr'
p400
g350
sS'DFS E(B-V)'
p401
S'0.0602'
p402
sS'image subtraction needed'
p403
S'?'
p404
sS'CfA BJD bootstrap'
p405
S'54377.26'
p406
sS'v1 Fe II 5169 date'
p407
g350
sS' CfA E(B-V)hosterr'
p408
g3
sS'v2 Fe II 5018'
p409
g350
sS'P13 UV data'
p410
S'0'
p411
sS'cfaHmax'
p412
g3
sS'v2 Fe II 5169 error'
p413
g350
sS'CfA IJD bootstrap'
p414
S'<0000000'
p415
sS'cfaKmax'
p416
g350
sS'comment'
p417
S';1 spec ;galspec in details - SNID gives good fits to both Ic-bl and Ic based on the 1 spec'
p418
sS'dVJD CfA bootstrap'
p419
S'#VALUE!'
p420
sS'radeg'
p421
S'93.3833333333'
p422
sS'distance Mpc'
p423
S'57.8256184162'
p424
sS'inclination error'
p425
S'--'
p426
sS'PAIRITEL'
p427
g411
sS'cfaImax'
p428
g3
sS'Fe II 5169 new'
p429
g3
sS'cfaBmaxerr'
p430
S'0.09'
p431
sS'v2 Fe II 5018 error'
p432
g350
sS'E(b-v)host'
p433
S'--'
p434
sS'CfA photometric quality (1best, 3 worst)'
p435
g371
sS'inclination/E(B-V) ref'
p436
S'--'
p437
sS'cfaBmax'
p438
S'19.47'
p439
sS'CfA IJD error'
p440
S'<0000000'
p441
sS'D11Vmaxdateerr'
p442
g3
sS'CfA dm15'
p443
g350
sS'Fe II 5018 at maximum (linear interpolation)'
p444
g350
sS'CfA BJD error'
p445
S'2.97'
p446
sS'earliestV'
p447
S'2454363.938'
p448
sS'inclination from leida'
p449
S'--'
p450
sS'CfA dm15 linear'
p451
g350
sS'z'
p452
S'0.013353'
p453
sS'cfaImaxerr'
p454
g350
sS'cfaJmax'
p455
g350
sS'max_ref'
p456
S'CfA'
p457
sS'v2 Fe II 5169'
p458
g350
sS'FeII51691or2'
p459
S'#DIV/0!'
p460
sS'CfA VJD bootstrap'
p461
S'<2454363.94'
p462
sS'v1 Fe II 5018 error'
p463
g350
sS'MaxVdate'
p464
S'<2007'
p465
sS'z_ref'
p466
S'UZC'
p467
sS'D11Vmax'
p468
g3
sS'distanced11'
p469
S'--'
p470
sS'separation '
p471
g350
sS'hostgal'
p472
S'UGC3416'
p473
sS'E(B-V)'
p474
S'--'
p475
sS'inclination from axes'
p476
S'66.5461856664679'
p477
sS'CfA RJD error'
p478
S'<0000000'
p479
sS'cfaKmaxerr'
p480
g350
sS'axis ratio'
p481
S'0.480141843971631'
p482
sS'MaxVMag'
p483
S'<18.1'
p484
sS'cfaRmax'
p485
g350
sS'v1 Fe II 5169 error'
p486
g350
sS'E(B-V) SF2011'
p487
S'0.1182'
p488
sS'cfaUmax'
p489
g350
ssS'fnir'
p490
Nsg193
I00
sS'polysol'
p491
(dp492
g160
Nsg161
Nsg162
Nsg163
Nsg164
Nsg165
Nsg166
Nsg167
Nsg168
Nsg169
Nsg170
NssS'nir'
p493
I00
sS'maxmags'
p494
(dp495
g160
(dp496
g21
F0.0
sg70
Fnan
sg72
Fnan
ssg161
(dp497
g21
F0.0
sg70
Fnan
sg72
Fnan
ssg162
(dp498
g21
F0.0
sg70
Fnan
sg72
Fnan
ssg163
(dp499
g21
F0.0
sg70
Fnan
sg72
Fnan
ssg164
(dp500
g21
F0.0
sg70
Fnan
sg72
Fnan
ssg165
(dp501
g21
F0.0
sg70
Fnan
sg72
Fnan
ssg166
(dp502
g21
F0.0
sg70
Fnan
sg72
Fnan
ssg167
(dp503
g21
F0.0
sg70
Fnan
sg72
Fnan
ssg168
(dp504
g21
F0.0
sg70
Fnan
sg72
Fnan
ssg169
(dp505
g21
F0.0
sg70
Fnan
sg72
Fnan
ssg170
(dp506
g21
F0.0
sg70
Fnan
sg72
Fnan
sssS'snspline'
p507
(dp508
g160
Nsg161
Nsg162
Nsg163
Nsg164
Nsg165
Nsg166
Nsg167
Nsg168
Nsg169
Nsg170
NssS'pipeline'
p509
S'CfA4'
p510
sS'name'
p511
S'sn2007iq'
p512
sS'solution'
p513
(dp514
g160
(dp515
S'resid'
p516
NsS'pars'
p517
NsS'sol'
p518
NsS'deg'
p519
Nssg161
(dp520
g516
Nsg517
Nsg518
Nsg519
Nssg162
(dp521
g516
Nsg517
Nsg518
Nsg519
Nssg163
(dp522
g516
Nsg517
Nsg518
Nsg519
Nssg164
(dp523
g516
Nsg517
Nsg518
Nsg519
Nssg165
(dp524
g516
Nsg517
Nsg518
Nsg519
Nssg166
(dp525
g516
Nsg517
Nsg518
Nsg519
Nssg167
(dp526
g516
Nsg517
Nsg518
Nsg519
Nssg168
(dp527
g516
Nsg517
Nsg518
Nsg519
Nssg169
(dp528
g516
Nsg517
Nsg518
Nsg519
Nssg170
(dp529
g516
Nsg517
Nsg518
Nsg519
NsssS'su'
p530
(itemplutils
setupvars
p531
(dp532
S'photcodes'
p533
(dp534
g160
(S'02'
p535
S'07'
p536
tp537
sg161
(S'05'
p538
S'0a'
p539
tp540
sg162
(g162
g162
tp541
sg163
(g163
g163
tp542
sg164
(g164
g164
tp543
sg166
(S'04'
p544
S'09'
p545
tp546
sg169
(S'01'
p547
S'06'
p548
tp549
sg168
(S'03'
p550
S'08'
p551
tp552
sg165
(S'14'
p553
S'0c'
p554
tp555
sg170
(S'13'
p556
S'0b'
p557
tp558
sg167
(S'15'
p559
g559
tp560
ssS'mysymbols'
p561
(dp562
S'Ic-bl'
p563
S'v'
p564
sS'other'
p565
S'x'
p566
sS'IIb'
p567
S'^'
p568
sS'IIb-n'
p569
S'>'
p570
sS'Ic'
p571
S's'
p572
sS'Ib'
p573
S'o'
p574
ssS'bandsnonir'
p575
(lp576
g169
ag167
ag160
ag168
ag166
ag161
ag170
ag165
asS'ebmvcfa'
p577
(dp578
S'07gr'
p579
F0.0462
sS'09iz'
p580
F0.064
sS'04aw'
p581
F0.352
sS'06aj'
p582
F0.141
sS'07ag'
p583
F0.627
sS'02ap'
p584
F0.03
sS'05kl'
p585
F1.344
sS'08bo'
p586
F0.294
sS'06lv'
p587
F0.574
sS'05kz'
p588
F0.437
sS'06F'
p589
F0.533
sS'07uy'
p590
F0.378
sS'08D'
p591
F0.572
sS'05bf'
p592
F0.05
sS'09jf'
p593
F0.045
sS'06bf'
p594
F0.368
sS'06fo'
p595
F0.201
sS'05mf'
p596
F0.231
sS'06T'
p597
F0.397
sS'07ce'
p598
F0.082
sS'07ru'
p599
F0.01
sS'03jd'
p600
F0.1
sS'07cl'
p601
F0.258
sS'09er'
p602
F0.11
sS'06el'
p603
F0.147
sS'06ep'
p604
F0.448
sS'07kj'
p605
F0.295
sS'07C'
p606
F0.65
sS'05hg'
p607
F0.244
ssS'insts'
p608
(lp609
S'shooter'
p610
aS'kepler'
p611
aS'mini'
p612
asS'mycolors'
p613
(dp614
g160
S'#0066cc'
p615
sg161
S'm'
p616
sg162
S'#FFB700'
p617
sg163
S'#A4A4A4'
p618
sg164
S'#4F088A'
p619
sg166
S'#b20000'
p620
sg169
S'k'
p621
sg168
S'#47b56c'
p622
sg165
g616
sg170
g620
sg167
g621
ssS'bands'
p623
(lp624
g169
ag167
ag160
ag168
ag166
ag161
ag170
ag165
ag164
ag162
ag163
asS'mylines'
p625
(dp626
g563
S'dotted'
p627
sg565
S'solid'
p628
sg567
g628
sg569
g628
sg571
g628
sg573
S'dashed'
p629
ssS'mytypecolors'
p630
(dp631
g563
g170
sg565
g621
sg567
S'g'
p632
sg569
S'y'
p633
sg571
g306
sg573
g621
ssS'mycolorcolors'
p634
(dp635
g55
S'#9999EE'
p636
sg43
S'#0B0B3B'
p637
sg53
g620
sg18
S'SlateBlue'
p638
sg23
g636
sg25
g616
sg33
g622
sg31
g616
sg59
g637
sg45
S'#70B8FF'
p639
sg41
g637
sg57
g637
sg47
g615
sg49
S'#FFCC80'
p640
sg61
g621
sg63
S'purple'
p641
sg51
g640
sg27
g620
sg29
g622
ssS'AonEBmV'
p642
(dp643
S'm2'
p644
F4.3
sg160
F4.315
sS'w1'
p645
F4.3
sg161
F1.94
sg162
F0.576
sg163
F0.367
sg164
F0.902
sg165
F2.086
sg166
F2.673
sg169
F5.434
sS'w2'
p646
F4.3
sS'vv'
p647
F3.315
sg168
F3.315
sg167
F5.155
sS'uu'
p648
F5.155
sg170
F2.751
ssS'instcodes'
p649
(dp650
g612
I1
sg611
I0
sg610
I0
ssS'ebmvs'
p651
(dp652
S'04ge'
p653
F0.0754
sS'04gk'
p654
F0.0247
sS'07aw'
p655
F0.0338
sS'04gt'
p656
F0.0398
sS'06gi'
p657
F0.0205
sS'04gv'
p658
F0.0286
sS'04gq'
p659
F0.0627
sg583
F0.025
sg596
F0.0153
sS'97dq'
p660
F0.0382
sS'05ek'
p661
F0.1811
sS'05eo'
p662
F0.0585
sS'98fa'
p663
F0.0382
sS'01ej'
p664
F0.046
sS'93J'
p665
F0.069
sg595
F0.025
sS'05nb'
p666
F0.032
sS'06ir'
p667
F0.0393
sS'09K'
p668
F0.0491
sS'04ff'
p669
F0.0281
sS'04fe'
p670
F0.021
sS'04ao'
p671
F0.0893
sg581
F0.018
sg585
F0.0219
sg587
F0.0245
sS'06ck'
p672
F0.0245
sS'05kf'
p673
F0.0378
sS'07hb'
p674
F0.0518
sg588
F0.046
sS'06ld'
p675
F0.0144
sS'06lc'
p676
F0.0556
sS'05da'
p677
F0.2483
sS'08hh'
p678
F0.0427
sg597
F0.0647
sS'07iq'
p679
F0.1182
sg602
F0.0389
sS'97ef'
p680
F0.0366
sS'96cb'
p681
F0.0262
sg580
F0.0729
sS'05az'
p682
F0.0097
sS'06cb'
p683
F0.0094
sS'05ar'
p684
F0.0394
sg586
F0.0513
sS'07bg'
p685
F0.0179
sS'01ai'
p686
F0.0081
sS'06jc'
p687
F0.0173
sS'06ss'
p688
F0.0178
sg589
F0.1635
sg590
F0.0194
sg592
F0.0385
sS'02ji'
p689
F0.0217
sS'97X'
p690
F0.0237
sg593
F0.0971
sg594
F0.0216
sS'06ba'
p691
F0.0452
sS'08an'
p692
F0.045
sg598
F0.02
sg599
F0.2254
sg600
F0.0784
sg601
F0.037
sS'07rz'
p693
F0.1723
sg603
F0.0973
sg604
F0.031
sg605
F0.0691
sS'08ax'
p694
F0.0186
sS'05U'
p695
F0.0143
sS'07ke'
p696
F0.0954
sS'08aq'
p697
F0.0383
sg579
F0.0535
sS'05la'
p698
F0.01
sS'94I'
p699
F0.0302
sS'95bb'
p700
F0.0948
sg582
F0.1267
sg584
F0.062
sS'98dt'
p701
F0.0219
sS'04eu'
p702
F0.0466
sS'00H'
p703
F0.1964
sS'01gd'
p704
F0.0098
sS'04dn'
p705
F0.0415
sg591
F0.0194
sS'95F'
p706
F0.0311
sS'08cw'
p707
F0.006
sS'07D'
p708
F0.2881
sg606
F0.0363
sg607
F0.0901
sS'04dk'
p709
F0.1357
sS'07I'
p710
F0.025
ssS'ebmvhost'
p711
(dp712
g579
F0.038
sg584
F0.03
sg599
F0.01
sg600
F0.1
sg581
F0.352
sg694
F0.4
sg591
F0.5406
ssS'cs'
p713
(dp714
g18
I13
sg23
I8
sg25
I7
sg27
I3
sg29
I2
sg31
I6
sg33
I5
sg35
I16
sg37
I18
sg39
I17
sg41
I11
sg43
I19
sg45
I10
sg47
I1
sg49
I9
sg51
I14
sg53
I4
sg55
I9
sg57
I11
sg59
I15
sg61
I0
sg63
I12
ssS'bandsindex'
p715
(dp716
g160
I1
sg161
I4
sg162
I8
sg163
I9
sg164
I7
sg166
I3
sg169
I0
sg168
I2
sg165
I6
sg170
I5
sg167
I0
ssS'bandsnir'
p717
(lp718
g164
ag162
ag163
asS'myshapes'
p719
(dp720
g160
g572
sg161
g570
sg162
g572
sg163
g574
sg164
g568
sg166
g564
sg169
g568
sg168
g574
sg165
S'h'
p721
sg170
S'd'
p722
sg167
g568
ssS'types'
p723
(lp724
g573
ag571
ag567
ag563
ag569
asS'cbands'
p725
(lp726
g61
ag57
ag41
ag47
ag29
ag27
ag53
ag33
ag31
ag25
ag23
ag63
ag18
ag51
ag59
ag35
ag39
ag37
aS'H-i'
p727
aS'J-H'
p728
aS'K-J'
p729
asbsS'n'
p730
NsS'dr15'
p731
F0.0
sS'photometry'
p732
(dp733
g160
(dp734
g68
g303
(g304
(I0
tp735
g306
tp736
Rp737
(I1
(I0
tp738
g9
I00
g3
tp739
bsS'camsys'
p740
(lp741
g3
asS'natmag'
p742
g303
(g304
(I0
tp743
g306
tp744
Rp745
(I1
(I0
tp746
g9
I00
g3
tp747
bsg70
g303
(g304
(I0
tp748
g306
tp749
Rp750
(I1
(I0
tp751
g9
I00
g3
tp752
bsS'extmag'
p753
g303
(g304
(I0
tp754
g306
tp755
Rp756
(I1
(I0
tp757
g9
I00
g3
tp758
bsg72
g303
(g304
(I0
tp759
g306
tp760
Rp761
(I1
(I0
tp762
g9
I00
g3
tp763
bssg161
(dp764
g68
g303
(g304
(I0
tp765
g306
tp766
Rp767
(I1
(I0
tp768
g9
I00
g3
tp769
bsg740
(lp770
g3
asg742
g303
(g304
(I0
tp771
g306
tp772
Rp773
(I1
(I0
tp774
g9
I00
g3
tp775
bsg70
g303
(g304
(I0
tp776
g306
tp777
Rp778
(I1
(I0
tp779
g9
I00
g3
tp780
bsg753
g303
(g304
(I0
tp781
g306
tp782
Rp783
(I1
(I0
tp784
g9
I00
g3
tp785
bsg72
g303
(g304
(I0
tp786
g306
tp787
Rp788
(I1
(I0
tp789
g9
I00
g3
tp790
bssg162
(dp791
g68
g303
(g304
(I0
tp792
g306
tp793
Rp794
(I1
(I0
tp795
g9
I00
g3
tp796
bsg740
(lp797
g3
asg742
g303
(g304
(I0
tp798
g306
tp799
Rp800
(I1
(I0
tp801
g9
I00
g3
tp802
bsg70
g303
(g304
(I0
tp803
g306
tp804
Rp805
(I1
(I0
tp806
g9
I00
g3
tp807
bsg753
g303
(g304
(I0
tp808
g306
tp809
Rp810
(I1
(I0
tp811
g9
I00
g3
tp812
bsg72
g303
(g304
(I0
tp813
g306
tp814
Rp815
(I1
(I0
tp816
g9
I00
g3
tp817
bssg163
(dp818
g68
g303
(g304
(I0
tp819
g306
tp820
Rp821
(I1
(I0
tp822
g9
I00
g3
tp823
bsg740
(lp824
g3
asg742
g303
(g304
(I0
tp825
g306
tp826
Rp827
(I1
(I0
tp828
g9
I00
g3
tp829
bsg70
g303
(g304
(I0
tp830
g306
tp831
Rp832
(I1
(I0
tp833
g9
I00
g3
tp834
bsg753
g303
(g304
(I0
tp835
g306
tp836
Rp837
(I1
(I0
tp838
g9
I00
g3
tp839
bsg72
g303
(g304
(I0
tp840
g306
tp841
Rp842
(I1
(I0
tp843
g9
I00
g3
tp844
bssg164
(dp845
g68
g303
(g304
(I0
tp846
g306
tp847
Rp848
(I1
(I0
tp849
g9
I00
g3
tp850
bsg740
(lp851
g3
asg742
g303
(g304
(I0
tp852
g306
tp853
Rp854
(I1
(I0
tp855
g9
I00
g3
tp856
bsg70
g303
(g304
(I0
tp857
g306
tp858
Rp859
(I1
(I0
tp860
g9
I00
g3
tp861
bsg753
g303
(g304
(I0
tp862
g306
tp863
Rp864
(I1
(I0
tp865
g9
I00
g3
tp866
bsg72
g303
(g304
(I0
tp867
g306
tp868
Rp869
(I1
(I0
tp870
g9
I00
g3
tp871
bssg165
(dp872
g68
g303
(g304
(I0
tp873
g306
tp874
Rp875
(I1
(I0
tp876
g9
I00
g3
tp877
bsg740
(lp878
g3
asg742
g303
(g304
(I0
tp879
g306
tp880
Rp881
(I1
(I0
tp882
g9
I00
g3
tp883
bsg70
g303
(g304
(I0
tp884
g306
tp885
Rp886
(I1
(I0
tp887
g9
I00
g3
tp888
bsg753
g303
(g304
(I0
tp889
g306
tp890
Rp891
(I1
(I0
tp892
g9
I00
g3
tp893
bsg72
g303
(g304
(I0
tp894
g306
tp895
Rp896
(I1
(I0
tp897
g9
I00
g3
tp898
bssg166
(dp899
g68
g303
(g304
(I0
tp900
g306
tp901
Rp902
(I1
(I0
tp903
g9
I00
g3
tp904
bsg740
(lp905
g3
asg742
g303
(g304
(I0
tp906
g306
tp907
Rp908
(I1
(I0
tp909
g9
I00
g3
tp910
bsg70
g303
(g304
(I0
tp911
g306
tp912
Rp913
(I1
(I0
tp914
g9
I00
g3
tp915
bsg753
g303
(g304
(I0
tp916
g306
tp917
Rp918
(I1
(I0
tp919
g9
I00
g3
tp920
bsg72
g303
(g304
(I0
tp921
g306
tp922
Rp923
(I1
(I0
tp924
g9
I00
g3
tp925
bssg167
(dp926
g68
g303
(g304
(I0
tp927
g306
tp928
Rp929
(I1
(I0
tp930
g9
I00
g3
tp931
bsg740
(lp932
g3
asg742
g303
(g304
(I0
tp933
g306
tp934
Rp935
(I1
(I0
tp936
g9
I00
g3
tp937
bsg70
g303
(g304
(I0
tp938
g306
tp939
Rp940
(I1
(I0
tp941
g9
I00
g3
tp942
bsg753
g303
(g304
(I0
tp943
g306
tp944
Rp945
(I1
(I0
tp946
g9
I00
g3
tp947
bsg72
g303
(g304
(I0
tp948
g306
tp949
Rp950
(I1
(I0
tp951
g9
I00
g3
tp952
bssg168
(dp953
g68
g303
(g304
(I0
tp954
g306
tp955
Rp956
(I1
(I0
tp957
g9
I00
g3
tp958
bsg740
(lp959
g3
asg742
g303
(g304
(I0
tp960
g306
tp961
Rp962
(I1
(I0
tp963
g9
I00
g3
tp964
bsg70
g303
(g304
(I0
tp965
g306
tp966
Rp967
(I1
(I0
tp968
g9
I00
g3
tp969
bsg753
g303
(g304
(I0
tp970
g306
tp971
Rp972
(I1
(I0
tp973
g9
I00
g3
tp974
bsg72
g303
(g304
(I0
tp975
g306
tp976
Rp977
(I1
(I0
tp978
g9
I00
g3
tp979
bssg169
(dp980
g68
g303
(g304
(I0
tp981
g306
tp982
Rp983
(I1
(I0
tp984
g9
I00
g3
tp985
bsg740
(lp986
g3
asg742
g303
(g304
(I0
tp987
g306
tp988
Rp989
(I1
(I0
tp990
g9
I00
g3
tp991
bsg70
g303
(g304
(I0
tp992
g306
tp993
Rp994
(I1
(I0
tp995
g9
I00
g3
tp996
bsg753
g303
(g304
(I0
tp997
g306
tp998
Rp999
(I1
(I0
tp1000
g9
I00
g3
tp1001
bsg72
g303
(g304
(I0
tp1002
g306
tp1003
Rp1004
(I1
(I0
tp1005
g9
I00
g3
tp1006
bssg170
(dp1007
g68
g303
(g304
(I0
tp1008
g306
tp1009
Rp1010
(I1
(I0
tp1011
g9
I00
g3
tp1012
bsg740
(lp1013
g3
asg742
g303
(g304
(I0
tp1014
g306
tp1015
Rp1016
(I1
(I0
tp1017
g9
I00
g3
tp1018
bsg70
g303
(g304
(I0
tp1019
g306
tp1020
Rp1021
(I1
(I0
tp1022
g9
I00
g3
tp1023
bsg753
g303
(g304
(I0
tp1024
g306
tp1025
Rp1026
(I1
(I0
tp1027
g9
I00
g3
tp1028
bsg72
g303
(g304
(I0
tp1029
g306
tp1030
Rp1031
(I1
(I0
tp1032
g9
I00
g3
tp1033
bsssb.