(isnclasses
mysn
p0
(dp1
S'camsystem'
p2
S''
p3
sS'dVmax'
p4
F0.0
sS'nomaxdate'
p5
I00
sS'maxcolors'
p6
(dp7
S'V-K'
p8
(dp9
S'color'
p10
Fnan
sS'epoch'
p11
F0.0
sS'dcolor'
p12
Fnan
ssS'V-H'
p13
(dp14
g10
Fnan
sg11
F0.0
sg12
Fnan
ssS'V-I'
p15
(dp16
g10
Fnan
sg11
F0.0
sg12
Fnan
ssS'R-I'
p17
(dp18
g10
Fnan
sg11
F0.0
sg12
Fnan
ssS'V-R'
p19
(dp20
g10
Fnan
sg11
F0.0
sg12
Fnan
ssS'V-i'
p21
(dp22
g10
Fnan
sg11
F0.0
sg12
Fnan
ssS'V-r'
p23
(dp24
g10
Fnan
sg11
F0.0
sg12
Fnan
ssS'B-J'
p25
(dp26
g10
Fnan
sg11
F0.0
sg12
Fnan
ssS'B-K'
p27
(dp28
g10
Fnan
sg11
F0.0
sg12
Fnan
ssS'B-H'
p29
(dp30
g10
Fnan
sg11
F0.0
sg12
Fnan
ssS'B-I'
p31
(dp32
g10
Fnan
sg11
F0.0
sg12
Fnan
ssS'B-R'
p33
(dp34
g10
Fnan
sg11
F0.0
sg12
Fnan
ssS'J-K'
p35
(dp36
g10
Fnan
sg11
F0.0
sg12
Fnan
ssS'B-V'
p37
(dp38
g10
Fnan
sg11
F0.0
sg12
Fnan
ssS'H-J'
p39
(dp40
g10
Fnan
sg11
F0.0
sg12
Fnan
ssS'H-K'
p41
(dp42
g10
Fnan
sg11
F0.0
sg12
Fnan
ssS'r-i'
p43
(dp44
g10
Fnan
sg11
F0.0
sg12
Fnan
ssS'I-H'
p45
(dp46
g10
Fnan
sg11
F0.0
sg12
Fnan
ssS'B-i'
p47
(dp48
g10
Fnan
sg11
F0.0
sg12
Fnan
ssS'B-r'
p49
(dp50
g10
Fnan
sg11
F0.0
sg12
Fnan
ssS'U-B'
p51
(dp52
g10
Fnan
sg11
F0.0
sg12
Fnan
ssS'r-K'
p53
(dp54
g10
Fnan
sg11
F0.0
sg12
Fnan
sssS'colors'
p55
(dp56
g8
(dp57
S'mjd'
p58
(lp59
sS'dmag'
p60
(lp61
sS'mag'
p62
(lp63
ssg13
(dp64
g58
(lp65
sg60
(lp66
sg62
(lp67
ssg15
(dp68
g58
(lp69
sg60
(lp70
sg62
(lp71
ssg17
(dp72
g58
(lp73
sg60
(lp74
sg62
(lp75
ssg19
(dp76
g58
(lp77
sg60
(lp78
sg62
(lp79
ssg21
(dp80
g58
(lp81
sg60
(lp82
sg62
(lp83
ssg23
(dp84
g58
(lp85
sg60
(lp86
sg62
(lp87
ssg25
(dp88
g58
(lp89
sg60
(lp90
sg62
(lp91
ssg27
(dp92
g58
(lp93
sg60
(lp94
sg62
(lp95
ssg29
(dp96
g58
(lp97
sg60
(lp98
sg62
(lp99
ssg31
(dp100
g58
(lp101
sg60
(lp102
sg62
(lp103
ssg33
(dp104
g58
(lp105
sg60
(lp106
sg62
(lp107
ssg35
(dp108
g58
(lp109
sg60
(lp110
sg62
(lp111
ssg37
(dp112
g58
(lp113
sg60
(lp114
sg62
(lp115
ssg39
(dp116
g58
(lp117
sg60
(lp118
sg62
(lp119
ssg41
(dp120
g58
(lp121
sg60
(lp122
sg62
(lp123
ssg43
(dp124
g58
(lp125
sg60
(lp126
sg62
(lp127
ssg45
(dp128
g58
(lp129
sg60
(lp130
sg62
(lp131
ssg47
(dp132
g58
(lp133
sg60
(lp134
sg62
(lp135
ssg49
(dp136
g58
(lp137
sg60
(lp138
sg62
(lp139
ssg51
(dp140
g58
(lp141
sg60
(lp142
sg62
(lp143
ssg53
(dp144
g58
(lp145
sg60
(lp146
sg62
(lp147
sssS'filters'
p148
(dp149
S'B'
p150
I0
sS'I'
p151
I0
sS'H'
p152
I0
sS'K'
p153
I0
sS'J'
p154
I0
sS'i'
p155
I0
sS'R'
p156
I0
sS'u'
p157
I0
sS'V'
p158
I0
sS'U'
p159
I0
sS'r'
p160
I0
ssS'snnameshort'
p161
S'06lc'
p162
sS'templsol'
p163
(dp164
g150
Nsg151
Nsg152
Nsg153
Nsg154
Nsg155
Nsg156
Nsg157
Nsg158
Nsg159
Nsg160
NssS'Vmaxmag'
p165
F0.0
sS'Vmaxflag'
p166
I00
sS'stats'
p167
(dp168
g150
(isnclasses
snstats
p169
(dp170
S'polyrchisq'
p171
F0.0
sS'Rdm15'
p172
F0.0
sS'tlim'
p173
(lp174
F0.0
aF0.0
asS'maglim'
p175
(lp176
F0.0
aF0.0
asS'templresid'
p177
NsS'polyresid'
p178
NsS'dm15'
p179
F0.0
sS'polydeg'
p180
F0.0
sS'success'
p181
I0
sS'flagmiss15'
p182
I0
sS'flagmissmax'
p183
I0
sS'm15data'
p184
(lp185
F0.0
aF0.0
asS'band'
p186
g3
sS'templrchisq'
p187
F0.0
sS'flagbadfit'
p188
I0
sS'Rdm15lin'
p189
(lp190
F0.0
aF0.0
asS'templatefit'
p191
(dp192
S'stretch'
p193
F1.0
sS'yoffset'
p194
F0.0
sS'xoffset'
p195
F0.0
sS'xstretch'
p196
F1.0
ssS'dm15lin'
p197
(lp198
F0.0
aF0.0
asS'maxjd'
p199
(lp200
F0.0
aF0.0
asS'norm'
p201
F0.0
sg193
F0.0
sbsg151
(isnclasses
snstats
p202
(dp203
g171
F0.0
sg172
F0.0
sg173
(lp204
F0.0
aF0.0
asg175
(lp205
F0.0
aF0.0
asg177
Nsg178
Nsg179
F0.0
sg180
F0.0
sg181
I0
sg182
I0
sg183
I0
sg184
(lp206
F0.0
aF0.0
asg186
g3
sg187
F0.0
sg188
I0
sg189
(lp207
F0.0
aF0.0
asg191
(dp208
g193
F1.0
sg194
F0.0
sg195
F0.0
sg196
F1.0
ssg197
(lp209
F0.0
aF0.0
asg199
(lp210
F0.0
aF0.0
asg201
F0.0
sg193
F0.0
sbsg152
(isnclasses
snstats
p211
(dp212
g171
F0.0
sg172
F0.0
sg173
(lp213
F0.0
aF0.0
asg175
(lp214
F0.0
aF0.0
asg177
Nsg178
Nsg179
F0.0
sg180
F0.0
sg181
I0
sg182
I0
sg183
I0
sg184
(lp215
F0.0
aF0.0
asg186
g3
sg187
F0.0
sg188
I0
sg189
(lp216
F0.0
aF0.0
asg191
(dp217
g193
F1.0
sg194
F0.0
sg195
F0.0
sg196
F1.0
ssg197
(lp218
F0.0
aF0.0
asg199
(lp219
F0.0
aF0.0
asg201
F0.0
sg193
F0.0
sbsg153
(isnclasses
snstats
p220
(dp221
g171
F0.0
sg172
F0.0
sg173
(lp222
F0.0
aF0.0
asg175
(lp223
F0.0
aF0.0
asg177
Nsg178
Nsg179
F0.0
sg180
F0.0
sg181
I0
sg182
I0
sg183
I0
sg184
(lp224
F0.0
aF0.0
asg186
g3
sg187
F0.0
sg188
I0
sg189
(lp225
F0.0
aF0.0
asg191
(dp226
g193
F1.0
sg194
F0.0
sg195
F0.0
sg196
F1.0
ssg197
(lp227
F0.0
aF0.0
asg199
(lp228
F0.0
aF0.0
asg201
F0.0
sg193
F0.0
sbsg154
(isnclasses
snstats
p229
(dp230
g171
F0.0
sg172
F0.0
sg173
(lp231
F0.0
aF0.0
asg175
(lp232
F0.0
aF0.0
asg177
Nsg178
Nsg179
F0.0
sg180
F0.0
sg181
I0
sg182
I0
sg183
I0
sg184
(lp233
F0.0
aF0.0
asg186
g3
sg187
F0.0
sg188
I0
sg189
(lp234
F0.0
aF0.0
asg191
(dp235
g193
F1.0
sg194
F0.0
sg195
F0.0
sg196
F1.0
ssg197
(lp236
F0.0
aF0.0
asg199
(lp237
F0.0
aF0.0
asg201
F0.0
sg193
F0.0
sbsg155
(isnclasses
snstats
p238
(dp239
g171
F0.0
sg172
F0.0
sg173
(lp240
F0.0
aF0.0
asg175
(lp241
F0.0
aF0.0
asg177
Nsg178
Nsg179
F0.0
sg180
F0.0
sg181
I0
sg182
I0
sg183
I0
sg184
(lp242
F0.0
aF0.0
asg186
g3
sg187
F0.0
sg188
I0
sg189
(lp243
F0.0
aF0.0
asg191
(dp244
g193
F1.0
sg194
F0.0
sg195
F0.0
sg196
F1.0
ssg197
(lp245
F0.0
aF0.0
asg199
(lp246
F0.0
aF0.0
asg201
F0.0
sg193
F0.0
sbsg156
(isnclasses
snstats
p247
(dp248
g171
F0.0
sg172
F0.0
sg173
(lp249
F0.0
aF0.0
asg175
(lp250
F0.0
aF0.0
asg177
Nsg178
Nsg179
F0.0
sg180
F0.0
sg181
I0
sg182
I0
sg183
I0
sg184
(lp251
F0.0
aF0.0
asg186
g3
sg187
F0.0
sg188
I0
sg189
(lp252
F0.0
aF0.0
asg191
(dp253
g193
F1.0
sg194
F0.0
sg195
F0.0
sg196
F1.0
ssg197
(lp254
F0.0
aF0.0
asg199
(lp255
F0.0
aF0.0
asg201
F0.0
sg193
F0.0
sbsg157
(isnclasses
snstats
p256
(dp257
g171
F0.0
sg172
F0.0
sg173
(lp258
F0.0
aF0.0
asg175
(lp259
F0.0
aF0.0
asg177
Nsg178
Nsg179
F0.0
sg180
F0.0
sg181
I0
sg182
I0
sg183
I0
sg184
(lp260
F0.0
aF0.0
asg186
g3
sg187
F0.0
sg188
I0
sg189
(lp261
F0.0
aF0.0
asg191
(dp262
g193
F1.0
sg194
F0.0
sg195
F0.0
sg196
F1.0
ssg197
(lp263
F0.0
aF0.0
asg199
(lp264
F0.0
aF0.0
asg201
F0.0
sg193
F0.0
sbsg158
(isnclasses
snstats
p265
(dp266
g171
F0.0
sg172
F0.0
sg173
(lp267
F0.0
aF0.0
asg175
(lp268
F0.0
aF0.0
asg177
Nsg178
Nsg179
F0.0
sg180
F0.0
sg181
I0
sg182
I0
sg183
I0
sg184
(lp269
F0.0
aF0.0
asg186
g3
sg187
F0.0
sg188
I0
sg189
(lp270
F0.0
aF0.0
asg191
(dp271
g193
F1.0
sg194
F0.0
sg195
F0.0
sg196
F1.0
ssg197
(lp272
F0.0
aF0.0
asg199
(lp273
F0.0
aF0.0
asg201
F0.0
sg193
F0.0
sbsg159
(isnclasses
snstats
p274
(dp275
g171
F0.0
sg172
F0.0
sg173
(lp276
F0.0
aF0.0
asg175
(lp277
F0.0
aF0.0
asg177
Nsg178
Nsg179
F0.0
sg180
F0.0
sg181
I0
sg182
I0
sg183
I0
sg184
(lp278
F0.0
aF0.0
asg186
g3
sg187
F0.0
sg188
I0
sg189
(lp279
F0.0
aF0.0
asg191
(dp280
g193
F1.0
sg194
F0.0
sg195
F0.0
sg196
F1.0
ssg197
(lp281
F0.0
aF0.0
asg199
(lp282
F0.0
aF0.0
asg201
F0.0
sg193
F0.0
sbsg160
(isnclasses
snstats
p283
(dp284
g171
F0.0
sg172
F0.0
sg173
(lp285
F0.0
aF0.0
asg175
(lp286
F0.0
aF0.0
asg177
Nsg178
Nsg179
F0.0
sg180
F0.0
sg181
I0
sg182
I0
sg183
I0
sg184
(lp287
F0.0
aF0.0
asg186
g3
sg187
F0.0
sg188
I0
sg189
(lp288
F0.0
aF0.0
asg191
(dp289
g193
F1.0
sg194
F0.0
sg195
F0.0
sg196
F1.0
ssg197
(lp290
F0.0
aF0.0
asg199
(lp291
F0.0
aF0.0
asg201
F0.0
sg193
F0.0
sbssS'lc'
p292
cnumpy.core.multiarray
_reconstruct
p293
(cnumpy
ndarray
p294
(I0
tp295
S'b'
p296
tp297
Rp298
(I1
(I48
tp299
cnumpy
dtype
p300
(S'V18'
p301
I0
I1
tp302
Rp303
(I3
S'|'
p304
N(S'photcode'
p305
S'mjd'
p306
S'mag'
p307
S'dmag'
p308
S'ccmag'
p309
tp310
(dp311
g306
(g300
(S'f4'
p312
I0
I1
tp313
Rp314
(I3
S'<'
p315
NNNI-1
I-1
I0
tp316
bI2
tp317
sg309
(g314
I14
tp318
sg307
(g314
I6
tp319
sg305
(g300
(S'S2'
p320
I0
I1
tp321
Rp322
(I3
S'|'
p323
NNNI2
I1
I0
tp324
bI0
tp325
sg308
(g314
I10
tp326
sI18
I1
I16
tp327
bI00
S'02($SGd;\x9dAh\x91m=\x91\xed\x9dA02"&SG\x00\x00\x9fA\x7fj\xbc=R\xb8\x9fA02\x1f\'SGZd\xa0A9\xb4\xc8=\xf6(\xa1A025(SG\xe1z\xa0A\x1b/\xdd=\'1\xa1A02\x1e2SG\xb0r\xa2AJ\x0c\x02>\x0c\x02\xa3A03 \x1dSGD\x8b\x8dA\x7fj\xbc<\x8bl\x8dA03\x1e\x1eSGJ\x0c\x8fA\xb6\xf3}=\x91\xed\x8eA03\'$SG\x81\x95\x92AB`\xe5<Nb\x92A03!&SG\xdd$\x93Ah\x91\xed<\x9e\xef\x92A03\x1e\'SG\xa8\xc6\x94A\x02+\x07=h\x91\x94A034(SG\x0c\x02\x96A\x9e\xef\'=\xcd\xcc\x95A03\x1c0SGd;\x99AB`e=b\x10\x99A03\x1d2SG/\xdd\x99A#\xdby=9\xb4\x99A03.8SGh\x91\x9bAX9\xb4=\x8bl\x9bA03\x16:SG\x02+\x9bAo\x12\x83=%\x06\x9bA03\x16;SG\xc5 \x9bA\xbct\x93=\xf4\xfd\x9aA03\x1b<SG\xecQ\x9cA\x7fj\xbc=\x1b/\x9cA03\x14ASG\xbaI\x9fA\xf2\xd2M>\x02+\x9fA03\x1eFSGF\xb6\x9dA\x17\xd9N>\x9a\x99\x9dA13\x1a\x1bSGj\xbc\x8aA\n\xd7\xa3<\x8d\x97\x8aA13 \x1dSG\x08\xac\x8aA1\x08\xac<\x14\xae\x8aA13&$SG!\xb0\x8eAX9\xb4<\xfc\xa9\x8eA13!&SG\xf2\xd2\x8fA1\x08\xac<\xcd\xcc\x8fA13\x1d\'SG\x1dZ\x90A\x7fj\xbc<\x04V\x90A133(SG\xc7K\x90A\xcd\xcc\xcc<\xecQ\x90A13\x1b0SG\x04V\x95Aw\xbe\x1f=\x10X\x95A13\x1c2SGH\xe1\x96AX94=\x17\xd9\x96A13*6SG\xc3\xf5\x97Ah\x91m=\xaa\xf1\x97A13-8SG\xf0\xa7\x98A\xf4\xfdT=\xd7\xa3\x98A13\x15:SG\xa0\x1a\x98A\xcd\xccL=\xd1"\x98A13\x1a<SG\x93\x18\x99A\x7fj<=\xa0\x1a\x99A13\x14ASG\x9a\x99\x99A\xfc\xa9q=\x08\xac\x99A13\x1dFSG\x81\x95\x9bA\x02+\x87=\xa6\x9b\x9bA14\x19\x1bSG\x9c\xc4\x89A\x8f\xc2\xf5<\xd7\xa3\x89A14\x1f\x1dSG\xfa~\x89A\x7fj\xbc<\xa4p\x89A14\x1c\x1eSG\x8f\xc2\x89A\x1b/\xdd<R\xb8\x89A14%$SG/\xdd\x8bA\x7fj\xbc<\xa8\xc6\x8bA14 &SGF\xb6\x8cAX9\xb4<\xb2\x9d\x8cA14\x1c\'SG\xb8\x1e\x8dA\x7fj\xbc<1\x08\x8dA142(SG\xecQ\x8eAh\x91\xed<X9\x8eA14\x1a0SG\xa4p\x91A)\\\x0f=ff\x91A14\x1c2SG\xc7K\x93A\xcd\xccL=q=\x93A14)6SGff\x95A\x0e-\xb2=\x04V\x95A14\x14:SG\x00\x00\x95AB`e=\xdb\xf9\x94A14\x15;SG\'1\x95Ah\x91m=\x02+\x95A14\x1a<SG\xe1z\x94A\xcd\xccL=\xd5x\x94A14\x13ASG\x00\x00\x94A\n\xd7#=J\x0c\x94A14\x1dFSG\xbct\x96A#\xdby=\xee|\x96A'
p328
tp329
bsS'Vmag'
p330
NsS'Rmax'
p331
(dp332
sS'polyfit'
p333
NsS'ebmvtot'
p334
F0.0
sS'Vmax'
p335
F0.0
sS'type'
p336
S'Ib'
p337
sS'metadata'
p338
(dp339
g3
S'0.738'
p340
sS'cfaUmaxerr'
p341
S'-'
p342
sS'v2 Fe II 5169 date'
p343
g342
sS'D11Rmax'
p344
g3
sS'v_z'
p345
S'4863'
p346
sS'E(b-v)hosterr'
p347
S'--'
p348
sS'v1 Fe II 5018 date'
p349
g342
sS'cfaRmaxerr'
p350
g342
sS'CfA RJD bootstrap'
p351
S'<0000000'
p352
sS'inclination from axes sdss'
p353
S'51.2017766854862'
p354
sS'my E(B-V)host from inclination'
p355
S'0.248423696868707'
p356
sS'RA'
p357
S'22:44:24'
p358
sS'cfaVmaxerr'
p359
g342
sS'Dm15 (with Lyman BC correction)'
p360
g3
sS'CfA E(B-V)host'
p361
g3
sS'lcvquality'
p362
S'1'
p363
sS'v1 Fe II 5169 '
p364
g342
sS'decdeg'
p365
S'-0.164722222222'
p366
sS'cfaVmax'
p367
g342
sS'CfA VJD bootstrap error'
p368
S'--'
p369
sS'MaxVJD'
p370
S'<2454045.6'
p371
sS'D11Vmaxdate'
p372
g3
sS'v1 Fe II 5018 '
p373
g342
sS'D11Rmaxdate'
p374
g3
sS'D11Rmaxerr'
p375
g3
sS'Fe II 5169 at maximum (linear interpolation error)'
p376
S'#VALUE!'
p377
sS'D11Vmaxerr'
p378
g3
sS'axis ratio sdss'
p379
S'0.683'
p380
sS'D11Rmaxdateerr'
p381
g3
sS'v2 FeII 5018 date'
p382
g342
sS'DEC'
p383
S'-0:09:53'
p384
sS'Type'
p385
g337
sS'cfaJmaxerr'
p386
g342
sS'SNname'
p387
S'sn2006lc'
p388
sS'Fe II 5169 at maximum (linear interpolation)'
p389
g342
sS'inclination'
p390
S'--'
p391
sS'cfaHmaxerr'
p392
g342
sS'DFS E(B-V)'
p393
S'0.0647'
p394
sS'image subtraction needed'
p395
S'Y'
p396
sS'CfA BJD bootstrap'
p397
S'<0000000'
p398
sS'v1 Fe II 5169 date'
p399
g342
sS' CfA E(B-V)hosterr'
p400
g3
sS'v2 Fe II 5018'
p401
g342
sS'P13 UV data'
p402
S'0'
p403
sS'cfaHmax'
p404
g3
sS'v2 Fe II 5169 error'
p405
g342
sS'CfA IJD bootstrap'
p406
S'<0000000'
p407
sS'cfaKmax'
p408
g342
sS'comment'
p409
S';**GSP R-max  spec of host with FAST - check /details'
p410
sS'dVJD CfA bootstrap'
p411
S'#VALUE!'
p412
sS'radeg'
p413
S'341.1'
p414
sS'distance Mpc'
p415
S'70.3892057847'
p416
sS'inclination error'
p417
S'--'
p418
sS'PAIRITEL'
p419
g403
sS'cfaImax'
p420
S'17.17'
p421
sS'Fe II 5169 new'
p422
g3
sS'cfaBmaxerr'
p423
g342
sS'v2 Fe II 5018 error'
p424
g342
sS'E(b-v)host'
p425
S'--'
p426
sS'CfA photometric quality (1best, 3 worst)'
p427
g363
sS'inclination/E(B-V) ref'
p428
S'--'
p429
sS'cfaBmax'
p430
g342
sS'CfA IJD error'
p431
S'<0000000'
p432
sS'D11Vmaxdateerr'
p433
g3
sS'CfA dm15'
p434
S'-1.184'
p435
sS'Fe II 5018 at maximum (linear interpolation)'
p436
g342
sS'CfA BJD error'
p437
S'<0000000'
p438
sS'earliestV'
p439
S'2454043.602'
p440
sS'inclination from leida'
p441
S'47.6'
p442
sS'CfA dm15 linear'
p443
S'-1.249'
p444
sS'z'
p445
S'0.016221'
p446
sS'cfaImaxerr'
p447
S'0.03'
p448
sS'cfaJmax'
p449
g3
sS'max_ref'
p450
S'CfA'
p451
sS'v2 Fe II 5169'
p452
g342
sS'FeII51691or2'
p453
S'#DIV/0!'
p454
sS'CfA VJD bootstrap'
p455
S'<2454045.62'
p456
sS'v1 Fe II 5018 error'
p457
g342
sS'MaxVdate'
p458
S'<20061104.1'
p459
sS'z_ref'
p460
S'NED'
p461
sS'D11Vmax'
p462
g3
sS'distanced11'
p463
S'--'
p464
sS'separation '
p465
g342
sS'hostgal'
p466
S'NGC7364'
p467
sS'E(B-V)'
p468
S'--'
p469
sS'inclination from axes'
p470
S'54.6446122491474'
p471
sS'CfA RJD error'
p472
S'<0000000'
p473
sS'cfaKmaxerr'
p474
g342
sS'axis ratio'
p475
S'0.640069384215091'
p476
sS'MaxVMag'
p477
S'<17.5'
p478
sS'cfaRmax'
p479
g342
sS'v1 Fe II 5169 error'
p480
g342
sS'E(B-V) SF2011'
p481
S'0.0556'
p482
sS'cfaUmax'
p483
g342
ssS'fnir'
p484
Nsg183
I00
sS'polysol'
p485
(dp486
g150
Nsg151
Nsg152
Nsg153
Nsg154
Nsg155
Nsg156
Nsg157
Nsg158
Nsg159
Nsg160
NssS'nir'
p487
I00
sS'maxmags'
p488
(dp489
g150
(dp490
g11
F0.0
sg60
Fnan
sg62
Fnan
ssg151
(dp491
g11
F0.0
sg60
Fnan
sg62
Fnan
ssg152
(dp492
g11
F0.0
sg60
Fnan
sg62
Fnan
ssg153
(dp493
g11
F0.0
sg60
Fnan
sg62
Fnan
ssg154
(dp494
g11
F0.0
sg60
Fnan
sg62
Fnan
ssg155
(dp495
g11
F0.0
sg60
Fnan
sg62
Fnan
ssg156
(dp496
g11
F0.0
sg60
Fnan
sg62
Fnan
ssg157
(dp497
g11
F0.0
sg60
Fnan
sg62
Fnan
ssg158
(dp498
g11
F0.0
sg60
Fnan
sg62
Fnan
ssg159
(dp499
g11
F0.0
sg60
Fnan
sg62
Fnan
ssg160
(dp500
g11
F0.0
sg60
Fnan
sg62
Fnan
sssS'snspline'
p501
(dp502
g150
Nsg151
Nsg152
Nsg153
Nsg154
Nsg155
Nsg156
Nsg157
Nsg158
Nsg159
Nsg160
NssS'pipeline'
p503
S'CfA3'
p504
sS'name'
p505
S'sn2006lc'
p506
sS'solution'
p507
(dp508
g150
(dp509
S'resid'
p510
NsS'pars'
p511
NsS'sol'
p512
NsS'deg'
p513
Nssg151
(dp514
g510
Nsg511
Nsg512
Nsg513
Nssg152
(dp515
g510
Nsg511
Nsg512
Nsg513
Nssg153
(dp516
g510
Nsg511
Nsg512
Nsg513
Nssg154
(dp517
g510
Nsg511
Nsg512
Nsg513
Nssg155
(dp518
g510
Nsg511
Nsg512
Nsg513
Nssg156
(dp519
g510
Nsg511
Nsg512
Nsg513
Nssg157
(dp520
g510
Nsg511
Nsg512
Nsg513
Nssg158
(dp521
g510
Nsg511
Nsg512
Nsg513
Nssg159
(dp522
g510
Nsg511
Nsg512
Nsg513
Nssg160
(dp523
g510
Nsg511
Nsg512
Nsg513
NsssS'su'
p524
(itemplutils
setupvars
p525
(dp526
S'photcodes'
p527
(dp528
g150
(S'02'
p529
S'07'
p530
tp531
sg151
(S'05'
p532
S'0a'
p533
tp534
sg152
(g152
g152
tp535
sg153
(g153
g153
tp536
sg154
(g154
g154
tp537
sg156
(S'04'
p538
S'09'
p539
tp540
sg159
(S'01'
p541
S'06'
p542
tp543
sg158
(S'03'
p544
S'08'
p545
tp546
sg155
(S'14'
p547
S'0c'
p548
tp549
sg160
(S'13'
p550
S'0b'
p551
tp552
sg157
(S'15'
p553
g553
tp554
ssS'mysymbols'
p555
(dp556
S'Ic-bl'
p557
S'v'
p558
sS'other'
p559
S'x'
p560
sS'IIb'
p561
S'^'
p562
sS'IIb-n'
p563
S'>'
p564
sS'Ic'
p565
S's'
p566
sS'Ib'
p567
S'o'
p568
ssS'bandsnonir'
p569
(lp570
g159
ag157
ag150
ag158
ag156
ag151
ag160
ag155
asS'ebmvcfa'
p571
(dp572
S'07gr'
p573
F0.0462
sS'09iz'
p574
F0.064
sS'04aw'
p575
F0.352
sS'06aj'
p576
F0.141
sS'07ag'
p577
F0.627
sS'02ap'
p578
F0.03
sS'05kl'
p579
F1.344
sS'08bo'
p580
F0.294
sS'06lv'
p581
F0.574
sS'05kz'
p582
F0.437
sS'06F'
p583
F0.533
sS'07uy'
p584
F0.378
sS'08D'
p585
F0.572
sS'05bf'
p586
F0.05
sS'09jf'
p587
F0.045
sS'06bf'
p588
F0.368
sS'06fo'
p589
F0.201
sS'05mf'
p590
F0.231
sS'06T'
p591
F0.397
sS'07ce'
p592
F0.082
sS'07ru'
p593
F0.01
sS'03jd'
p594
F0.1
sS'07cl'
p595
F0.258
sS'09er'
p596
F0.11
sS'06el'
p597
F0.147
sS'06ep'
p598
F0.448
sS'07kj'
p599
F0.295
sS'07C'
p600
F0.65
sS'05hg'
p601
F0.244
ssS'insts'
p602
(lp603
S'shooter'
p604
aS'kepler'
p605
aS'mini'
p606
asS'mycolors'
p607
(dp608
g150
S'#0066cc'
p609
sg151
S'm'
p610
sg152
S'#FFB700'
p611
sg153
S'#A4A4A4'
p612
sg154
S'#4F088A'
p613
sg156
S'#b20000'
p614
sg159
S'k'
p615
sg158
S'#47b56c'
p616
sg155
g610
sg160
g614
sg157
g615
ssS'bands'
p617
(lp618
g159
ag157
ag150
ag158
ag156
ag151
ag160
ag155
ag154
ag152
ag153
asS'mylines'
p619
(dp620
g557
S'dotted'
p621
sg559
S'solid'
p622
sg561
g622
sg563
g622
sg565
g622
sg567
S'dashed'
p623
ssS'mytypecolors'
p624
(dp625
g557
g160
sg559
g615
sg561
S'g'
p626
sg563
S'y'
p627
sg565
g296
sg567
g615
ssS'mycolorcolors'
p628
(dp629
g45
S'#9999EE'
p630
sg33
S'#0B0B3B'
p631
sg43
g614
sg8
S'SlateBlue'
p632
sg13
g630
sg15
g610
sg23
g616
sg21
g610
sg49
g631
sg35
S'#70B8FF'
p633
sg31
g631
sg47
g631
sg37
g609
sg39
S'#FFCC80'
p634
sg51
g615
sg53
S'purple'
p635
sg41
g634
sg17
g614
sg19
g616
ssS'AonEBmV'
p636
(dp637
S'm2'
p638
F4.3
sg150
F4.315
sS'w1'
p639
F4.3
sg151
F1.94
sg152
F0.576
sg153
F0.367
sg154
F0.902
sg155
F2.086
sg156
F2.673
sg159
F5.434
sS'w2'
p640
F4.3
sS'vv'
p641
F3.315
sg158
F3.315
sg157
F5.155
sS'uu'
p642
F5.155
sg160
F2.751
ssS'instcodes'
p643
(dp644
g606
I1
sg605
I0
sg604
I0
ssS'ebmvs'
p645
(dp646
S'04ge'
p647
F0.0754
sS'04gk'
p648
F0.0247
sS'07aw'
p649
F0.0338
sS'04gt'
p650
F0.0398
sS'06gi'
p651
F0.0205
sS'04gv'
p652
F0.0286
sS'04gq'
p653
F0.0627
sg577
F0.025
sg590
F0.0153
sS'97dq'
p654
F0.0382
sS'05ek'
p655
F0.1811
sS'05eo'
p656
F0.0585
sS'98fa'
p657
F0.0382
sS'01ej'
p658
F0.046
sS'93J'
p659
F0.069
sg589
F0.025
sS'05nb'
p660
F0.032
sS'06ir'
p661
F0.0393
sS'09K'
p662
F0.0491
sS'04ff'
p663
F0.0281
sS'04fe'
p664
F0.021
sS'04ao'
p665
F0.0893
sg575
F0.018
sg579
F0.0219
sg581
F0.0245
sS'06ck'
p666
F0.0245
sS'05kf'
p667
F0.0378
sS'07hb'
p668
F0.0518
sg582
F0.046
sS'06ld'
p669
F0.0144
sS'06lc'
p670
F0.0556
sS'05da'
p671
F0.2483
sS'08hh'
p672
F0.0427
sg591
F0.0647
sS'07iq'
p673
F0.1182
sg596
F0.0389
sS'97ef'
p674
F0.0366
sS'96cb'
p675
F0.0262
sg574
F0.0729
sS'05az'
p676
F0.0097
sS'06cb'
p677
F0.0094
sS'05ar'
p678
F0.0394
sg580
F0.0513
sS'07bg'
p679
F0.0179
sS'01ai'
p680
F0.0081
sS'06jc'
p681
F0.0173
sS'06ss'
p682
F0.0178
sg583
F0.1635
sg584
F0.0194
sg586
F0.0385
sS'02ji'
p683
F0.0217
sS'97X'
p684
F0.0237
sg587
F0.0971
sg588
F0.0216
sS'06ba'
p685
F0.0452
sS'08an'
p686
F0.045
sg592
F0.02
sg593
F0.2254
sg594
F0.0784
sg595
F0.037
sS'07rz'
p687
F0.1723
sg597
F0.0973
sg598
F0.031
sg599
F0.0691
sS'08ax'
p688
F0.0186
sS'05U'
p689
F0.0143
sS'07ke'
p690
F0.0954
sS'08aq'
p691
F0.0383
sg573
F0.0535
sS'05la'
p692
F0.01
sS'94I'
p693
F0.0302
sS'95bb'
p694
F0.0948
sg576
F0.1267
sg578
F0.062
sS'98dt'
p695
F0.0219
sS'04eu'
p696
F0.0466
sS'00H'
p697
F0.1964
sS'01gd'
p698
F0.0098
sS'04dn'
p699
F0.0415
sg585
F0.0194
sS'95F'
p700
F0.0311
sS'08cw'
p701
F0.006
sS'07D'
p702
F0.2881
sg600
F0.0363
sg601
F0.0901
sS'04dk'
p703
F0.1357
sS'07I'
p704
F0.025
ssS'ebmvhost'
p705
(dp706
g573
F0.038
sg578
F0.03
sg593
F0.01
sg594
F0.1
sg575
F0.352
sg688
F0.4
sg585
F0.5406
ssS'cs'
p707
(dp708
g8
I13
sg13
I8
sg15
I7
sg17
I3
sg19
I2
sg21
I6
sg23
I5
sg25
I16
sg27
I18
sg29
I17
sg31
I11
sg33
I19
sg35
I10
sg37
I1
sg39
I9
sg41
I14
sg43
I4
sg45
I9
sg47
I11
sg49
I15
sg51
I0
sg53
I12
ssS'bandsindex'
p709
(dp710
g150
I1
sg151
I4
sg152
I8
sg153
I9
sg154
I7
sg156
I3
sg159
I0
sg158
I2
sg155
I6
sg160
I5
sg157
I0
ssS'bandsnir'
p711
(lp712
g154
ag152
ag153
asS'myshapes'
p713
(dp714
g150
g566
sg151
g564
sg152
g566
sg153
g568
sg154
g562
sg156
g558
sg159
g562
sg158
g568
sg155
S'h'
p715
sg160
S'd'
p716
sg157
g562
ssS'types'
p717
(lp718
g567
ag565
ag561
ag557
ag563
asS'cbands'
p719
(lp720
g51
ag47
ag31
ag37
ag19
ag17
ag43
ag23
ag21
ag15
ag13
ag53
ag8
ag41
ag49
ag25
ag29
ag27
aS'H-i'
p721
aS'J-H'
p722
aS'K-J'
p723
asbsS'n'
p724
NsS'dr15'
p725
F0.0
sS'photometry'
p726
(dp727
g150
(dp728
g58
g293
(g294
(I0
tp729
g296
tp730
Rp731
(I1
(I0
tp732
g300
(S'f8'
p733
I0
I1
tp734
Rp735
(I3
S'<'
p736
NNNI-1
I-1
I0
tp737
bI00
g3
tp738
bsS'camsys'
p739
(lp740
g3
asS'natmag'
p741
g293
(g294
(I0
tp742
g296
tp743
Rp744
(I1
(I0
tp745
g735
I00
g3
tp746
bsg60
g293
(g294
(I0
tp747
g296
tp748
Rp749
(I1
(I0
tp750
g735
I00
g3
tp751
bsS'extmag'
p752
g293
(g294
(I0
tp753
g296
tp754
Rp755
(I1
(I0
tp756
g735
I00
g3
tp757
bsg62
g293
(g294
(I0
tp758
g296
tp759
Rp760
(I1
(I0
tp761
g735
I00
g3
tp762
bssg151
(dp763
g58
g293
(g294
(I0
tp764
g296
tp765
Rp766
(I1
(I0
tp767
g735
I00
g3
tp768
bsg739
(lp769
g3
asg741
g293
(g294
(I0
tp770
g296
tp771
Rp772
(I1
(I0
tp773
g735
I00
g3
tp774
bsg60
g293
(g294
(I0
tp775
g296
tp776
Rp777
(I1
(I0
tp778
g735
I00
g3
tp779
bsg752
g293
(g294
(I0
tp780
g296
tp781
Rp782
(I1
(I0
tp783
g735
I00
g3
tp784
bsg62
g293
(g294
(I0
tp785
g296
tp786
Rp787
(I1
(I0
tp788
g735
I00
g3
tp789
bssg152
(dp790
g58
g293
(g294
(I0
tp791
g296
tp792
Rp793
(I1
(I0
tp794
g735
I00
g3
tp795
bsg739
(lp796
g3
asg741
g293
(g294
(I0
tp797
g296
tp798
Rp799
(I1
(I0
tp800
g735
I00
g3
tp801
bsg60
g293
(g294
(I0
tp802
g296
tp803
Rp804
(I1
(I0
tp805
g735
I00
g3
tp806
bsg752
g293
(g294
(I0
tp807
g296
tp808
Rp809
(I1
(I0
tp810
g735
I00
g3
tp811
bsg62
g293
(g294
(I0
tp812
g296
tp813
Rp814
(I1
(I0
tp815
g735
I00
g3
tp816
bssg153
(dp817
g58
g293
(g294
(I0
tp818
g296
tp819
Rp820
(I1
(I0
tp821
g735
I00
g3
tp822
bsg739
(lp823
g3
asg741
g293
(g294
(I0
tp824
g296
tp825
Rp826
(I1
(I0
tp827
g735
I00
g3
tp828
bsg60
g293
(g294
(I0
tp829
g296
tp830
Rp831
(I1
(I0
tp832
g735
I00
g3
tp833
bsg752
g293
(g294
(I0
tp834
g296
tp835
Rp836
(I1
(I0
tp837
g735
I00
g3
tp838
bsg62
g293
(g294
(I0
tp839
g296
tp840
Rp841
(I1
(I0
tp842
g735
I00
g3
tp843
bssg154
(dp844
g58
g293
(g294
(I0
tp845
g296
tp846
Rp847
(I1
(I0
tp848
g735
I00
g3
tp849
bsg739
(lp850
g3
asg741
g293
(g294
(I0
tp851
g296
tp852
Rp853
(I1
(I0
tp854
g735
I00
g3
tp855
bsg60
g293
(g294
(I0
tp856
g296
tp857
Rp858
(I1
(I0
tp859
g735
I00
g3
tp860
bsg752
g293
(g294
(I0
tp861
g296
tp862
Rp863
(I1
(I0
tp864
g735
I00
g3
tp865
bsg62
g293
(g294
(I0
tp866
g296
tp867
Rp868
(I1
(I0
tp869
g735
I00
g3
tp870
bssg155
(dp871
g58
g293
(g294
(I0
tp872
g296
tp873
Rp874
(I1
(I0
tp875
g735
I00
g3
tp876
bsg739
(lp877
g3
asg741
g293
(g294
(I0
tp878
g296
tp879
Rp880
(I1
(I0
tp881
g735
I00
g3
tp882
bsg60
g293
(g294
(I0
tp883
g296
tp884
Rp885
(I1
(I0
tp886
g735
I00
g3
tp887
bsg752
g293
(g294
(I0
tp888
g296
tp889
Rp890
(I1
(I0
tp891
g735
I00
g3
tp892
bsg62
g293
(g294
(I0
tp893
g296
tp894
Rp895
(I1
(I0
tp896
g735
I00
g3
tp897
bssg156
(dp898
g58
g293
(g294
(I0
tp899
g296
tp900
Rp901
(I1
(I0
tp902
g735
I00
g3
tp903
bsg739
(lp904
g3
asg741
g293
(g294
(I0
tp905
g296
tp906
Rp907
(I1
(I0
tp908
g735
I00
g3
tp909
bsg60
g293
(g294
(I0
tp910
g296
tp911
Rp912
(I1
(I0
tp913
g735
I00
g3
tp914
bsg752
g293
(g294
(I0
tp915
g296
tp916
Rp917
(I1
(I0
tp918
g735
I00
g3
tp919
bsg62
g293
(g294
(I0
tp920
g296
tp921
Rp922
(I1
(I0
tp923
g735
I00
g3
tp924
bssg157
(dp925
g58
g293
(g294
(I0
tp926
g296
tp927
Rp928
(I1
(I0
tp929
g735
I00
g3
tp930
bsg739
(lp931
g3
asg741
g293
(g294
(I0
tp932
g296
tp933
Rp934
(I1
(I0
tp935
g735
I00
g3
tp936
bsg60
g293
(g294
(I0
tp937
g296
tp938
Rp939
(I1
(I0
tp940
g735
I00
g3
tp941
bsg752
g293
(g294
(I0
tp942
g296
tp943
Rp944
(I1
(I0
tp945
g735
I00
g3
tp946
bsg62
g293
(g294
(I0
tp947
g296
tp948
Rp949
(I1
(I0
tp950
g735
I00
g3
tp951
bssg158
(dp952
g58
g293
(g294
(I0
tp953
g296
tp954
Rp955
(I1
(I0
tp956
g735
I00
g3
tp957
bsg739
(lp958
g3
asg741
g293
(g294
(I0
tp959
g296
tp960
Rp961
(I1
(I0
tp962
g735
I00
g3
tp963
bsg60
g293
(g294
(I0
tp964
g296
tp965
Rp966
(I1
(I0
tp967
g735
I00
g3
tp968
bsg752
g293
(g294
(I0
tp969
g296
tp970
Rp971
(I1
(I0
tp972
g735
I00
g3
tp973
bsg62
g293
(g294
(I0
tp974
g296
tp975
Rp976
(I1
(I0
tp977
g735
I00
g3
tp978
bssg159
(dp979
g58
g293
(g294
(I0
tp980
g296
tp981
Rp982
(I1
(I0
tp983
g735
I00
g3
tp984
bsg739
(lp985
g3
asg741
g293
(g294
(I0
tp986
g296
tp987
Rp988
(I1
(I0
tp989
g735
I00
g3
tp990
bsg60
g293
(g294
(I0
tp991
g296
tp992
Rp993
(I1
(I0
tp994
g735
I00
g3
tp995
bsg752
g293
(g294
(I0
tp996
g296
tp997
Rp998
(I1
(I0
tp999
g735
I00
g3
tp1000
bsg62
g293
(g294
(I0
tp1001
g296
tp1002
Rp1003
(I1
(I0
tp1004
g735
I00
g3
tp1005
bssg160
(dp1006
g58
g293
(g294
(I0
tp1007
g296
tp1008
Rp1009
(I1
(I0
tp1010
g735
I00
g3
tp1011
bsg739
(lp1012
g3
asg741
g293
(g294
(I0
tp1013
g296
tp1014
Rp1015
(I1
(I0
tp1016
g735
I00
g3
tp1017
bsg60
g293
(g294
(I0
tp1018
g296
tp1019
Rp1020
(I1
(I0
tp1021
g735
I00
g3
tp1022
bsg752
g293
(g294
(I0
tp1023
g296
tp1024
Rp1025
(I1
(I0
tp1026
g735
I00
g3
tp1027
bsg62
g293
(g294
(I0
tp1028
g296
tp1029
Rp1030
(I1
(I0
tp1031
g735
I00
g3
tp1032
bsssb.