(isnclasses
mysn
p0
(dp1
S'camsystem'
p2
S''
p3
sS'dVmax'
p4
F0.0
sS'nomaxdate'
p5
I00
sS'maxcolors'
p6
(dp7
S'V-K'
p8
(dp9
S'color'
p10
Fnan
sS'epoch'
p11
F0.0
sS'dcolor'
p12
Fnan
ssS'V-H'
p13
(dp14
g10
Fnan
sg11
F0.0
sg12
Fnan
ssS'V-I'
p15
(dp16
g10
Fnan
sg11
F0.0
sg12
Fnan
ssS'R-I'
p17
(dp18
g10
Fnan
sg11
F0.0
sg12
Fnan
ssS'V-R'
p19
(dp20
g10
Fnan
sg11
F0.0
sg12
Fnan
ssS'V-i'
p21
(dp22
g10
Fnan
sg11
F0.0
sg12
Fnan
ssS'V-r'
p23
(dp24
g10
Fnan
sg11
F0.0
sg12
Fnan
ssS'B-J'
p25
(dp26
g10
Fnan
sg11
F0.0
sg12
Fnan
ssS'B-K'
p27
(dp28
g10
Fnan
sg11
F0.0
sg12
Fnan
ssS'B-H'
p29
(dp30
g10
Fnan
sg11
F0.0
sg12
Fnan
ssS'B-I'
p31
(dp32
g10
Fnan
sg11
F0.0
sg12
Fnan
ssS'B-R'
p33
(dp34
g10
Fnan
sg11
F0.0
sg12
Fnan
ssS'J-K'
p35
(dp36
g10
Fnan
sg11
F0.0
sg12
Fnan
ssS'B-V'
p37
(dp38
g10
Fnan
sg11
F0.0
sg12
Fnan
ssS'H-J'
p39
(dp40
g10
Fnan
sg11
F0.0
sg12
Fnan
ssS'H-K'
p41
(dp42
g10
Fnan
sg11
F0.0
sg12
Fnan
ssS'r-i'
p43
(dp44
g10
Fnan
sg11
F0.0
sg12
Fnan
ssS'I-H'
p45
(dp46
g10
Fnan
sg11
F0.0
sg12
Fnan
ssS'B-i'
p47
(dp48
g10
Fnan
sg11
F0.0
sg12
Fnan
ssS'B-r'
p49
(dp50
g10
Fnan
sg11
F0.0
sg12
Fnan
ssS'U-B'
p51
(dp52
g10
Fnan
sg11
F0.0
sg12
Fnan
ssS'r-K'
p53
(dp54
g10
Fnan
sg11
F0.0
sg12
Fnan
sssS'colors'
p55
(dp56
g8
(dp57
S'mjd'
p58
(lp59
sS'dmag'
p60
(lp61
sS'mag'
p62
(lp63
ssg13
(dp64
g58
(lp65
sg60
(lp66
sg62
(lp67
ssg15
(dp68
g58
(lp69
sg60
(lp70
sg62
(lp71
ssg17
(dp72
g58
(lp73
sg60
(lp74
sg62
(lp75
ssg19
(dp76
g58
(lp77
sg60
(lp78
sg62
(lp79
ssg21
(dp80
g58
(lp81
sg60
(lp82
sg62
(lp83
ssg23
(dp84
g58
(lp85
sg60
(lp86
sg62
(lp87
ssg25
(dp88
g58
(lp89
sg60
(lp90
sg62
(lp91
ssg27
(dp92
g58
(lp93
sg60
(lp94
sg62
(lp95
ssg29
(dp96
g58
(lp97
sg60
(lp98
sg62
(lp99
ssg31
(dp100
g58
(lp101
sg60
(lp102
sg62
(lp103
ssg33
(dp104
g58
(lp105
sg60
(lp106
sg62
(lp107
ssg35
(dp108
g58
(lp109
sg60
(lp110
sg62
(lp111
ssg37
(dp112
g58
(lp113
sg60
(lp114
sg62
(lp115
ssg39
(dp116
g58
(lp117
sg60
(lp118
sg62
(lp119
ssg41
(dp120
g58
(lp121
sg60
(lp122
sg62
(lp123
ssg43
(dp124
g58
(lp125
sg60
(lp126
sg62
(lp127
ssg45
(dp128
g58
(lp129
sg60
(lp130
sg62
(lp131
ssg47
(dp132
g58
(lp133
sg60
(lp134
sg62
(lp135
ssg49
(dp136
g58
(lp137
sg60
(lp138
sg62
(lp139
ssg51
(dp140
g58
(lp141
sg60
(lp142
sg62
(lp143
ssg53
(dp144
g58
(lp145
sg60
(lp146
sg62
(lp147
sssS'filters'
p148
(dp149
S'B'
p150
I0
sS'I'
p151
I0
sS'H'
p152
I0
sS'K'
p153
I0
sS'J'
p154
I0
sS'i'
p155
I0
sS'R'
p156
I0
sS'u'
p157
I0
sS'V'
p158
I0
sS'U'
p159
I0
sS'r'
p160
I0
ssS'snnameshort'
p161
S'06ir'
p162
sS'templsol'
p163
(dp164
g150
Nsg151
Nsg152
Nsg153
Nsg154
Nsg155
Nsg156
Nsg157
Nsg158
Nsg159
Nsg160
NssS'Vmaxmag'
p165
F0.0
sS'Vmaxflag'
p166
I00
sS'stats'
p167
(dp168
g150
(isnclasses
snstats
p169
(dp170
S'polyrchisq'
p171
F0.0
sS'Rdm15'
p172
F0.0
sS'tlim'
p173
(lp174
F0.0
aF0.0
asS'maglim'
p175
(lp176
F0.0
aF0.0
asS'templresid'
p177
NsS'polyresid'
p178
NsS'dm15'
p179
F0.0
sS'polydeg'
p180
F0.0
sS'success'
p181
I0
sS'flagmiss15'
p182
I0
sS'flagmissmax'
p183
I0
sS'm15data'
p184
(lp185
F0.0
aF0.0
asS'band'
p186
g3
sS'templrchisq'
p187
F0.0
sS'flagbadfit'
p188
I0
sS'Rdm15lin'
p189
(lp190
F0.0
aF0.0
asS'templatefit'
p191
(dp192
S'stretch'
p193
F1.0
sS'yoffset'
p194
F0.0
sS'xoffset'
p195
F0.0
sS'xstretch'
p196
F1.0
ssS'dm15lin'
p197
(lp198
F0.0
aF0.0
asS'maxjd'
p199
(lp200
F0.0
aF0.0
asS'norm'
p201
F0.0
sg193
F0.0
sbsg151
(isnclasses
snstats
p202
(dp203
g171
F0.0
sg172
F0.0
sg173
(lp204
F0.0
aF0.0
asg175
(lp205
F0.0
aF0.0
asg177
Nsg178
Nsg179
F0.0
sg180
F0.0
sg181
I0
sg182
I0
sg183
I0
sg184
(lp206
F0.0
aF0.0
asg186
g3
sg187
F0.0
sg188
I0
sg189
(lp207
F0.0
aF0.0
asg191
(dp208
g193
F1.0
sg194
F0.0
sg195
F0.0
sg196
F1.0
ssg197
(lp209
F0.0
aF0.0
asg199
(lp210
F0.0
aF0.0
asg201
F0.0
sg193
F0.0
sbsg152
(isnclasses
snstats
p211
(dp212
g171
F0.0
sg172
F0.0
sg173
(lp213
F0.0
aF0.0
asg175
(lp214
F0.0
aF0.0
asg177
Nsg178
Nsg179
F0.0
sg180
F0.0
sg181
I0
sg182
I0
sg183
I0
sg184
(lp215
F0.0
aF0.0
asg186
g3
sg187
F0.0
sg188
I0
sg189
(lp216
F0.0
aF0.0
asg191
(dp217
g193
F1.0
sg194
F0.0
sg195
F0.0
sg196
F1.0
ssg197
(lp218
F0.0
aF0.0
asg199
(lp219
F0.0
aF0.0
asg201
F0.0
sg193
F0.0
sbsg153
(isnclasses
snstats
p220
(dp221
g171
F0.0
sg172
F0.0
sg173
(lp222
F0.0
aF0.0
asg175
(lp223
F0.0
aF0.0
asg177
Nsg178
Nsg179
F0.0
sg180
F0.0
sg181
I0
sg182
I0
sg183
I0
sg184
(lp224
F0.0
aF0.0
asg186
g3
sg187
F0.0
sg188
I0
sg189
(lp225
F0.0
aF0.0
asg191
(dp226
g193
F1.0
sg194
F0.0
sg195
F0.0
sg196
F1.0
ssg197
(lp227
F0.0
aF0.0
asg199
(lp228
F0.0
aF0.0
asg201
F0.0
sg193
F0.0
sbsg154
(isnclasses
snstats
p229
(dp230
g171
F0.0
sg172
F0.0
sg173
(lp231
F0.0
aF0.0
asg175
(lp232
F0.0
aF0.0
asg177
Nsg178
Nsg179
F0.0
sg180
F0.0
sg181
I0
sg182
I0
sg183
I0
sg184
(lp233
F0.0
aF0.0
asg186
g3
sg187
F0.0
sg188
I0
sg189
(lp234
F0.0
aF0.0
asg191
(dp235
g193
F1.0
sg194
F0.0
sg195
F0.0
sg196
F1.0
ssg197
(lp236
F0.0
aF0.0
asg199
(lp237
F0.0
aF0.0
asg201
F0.0
sg193
F0.0
sbsg155
(isnclasses
snstats
p238
(dp239
g171
F0.0
sg172
F0.0
sg173
(lp240
F0.0
aF0.0
asg175
(lp241
F0.0
aF0.0
asg177
Nsg178
Nsg179
F0.0
sg180
F0.0
sg181
I0
sg182
I0
sg183
I0
sg184
(lp242
F0.0
aF0.0
asg186
g3
sg187
F0.0
sg188
I0
sg189
(lp243
F0.0
aF0.0
asg191
(dp244
g193
F1.0
sg194
F0.0
sg195
F0.0
sg196
F1.0
ssg197
(lp245
F0.0
aF0.0
asg199
(lp246
F0.0
aF0.0
asg201
F0.0
sg193
F0.0
sbsg156
(isnclasses
snstats
p247
(dp248
g171
F0.0
sg172
F0.0
sg173
(lp249
F0.0
aF0.0
asg175
(lp250
F0.0
aF0.0
asg177
Nsg178
Nsg179
F0.0
sg180
F0.0
sg181
I0
sg182
I0
sg183
I0
sg184
(lp251
F0.0
aF0.0
asg186
g3
sg187
F0.0
sg188
I0
sg189
(lp252
F0.0
aF0.0
asg191
(dp253
g193
F1.0
sg194
F0.0
sg195
F0.0
sg196
F1.0
ssg197
(lp254
F0.0
aF0.0
asg199
(lp255
F0.0
aF0.0
asg201
F0.0
sg193
F0.0
sbsg157
(isnclasses
snstats
p256
(dp257
g171
F0.0
sg172
F0.0
sg173
(lp258
F0.0
aF0.0
asg175
(lp259
F0.0
aF0.0
asg177
Nsg178
Nsg179
F0.0
sg180
F0.0
sg181
I0
sg182
I0
sg183
I0
sg184
(lp260
F0.0
aF0.0
asg186
g3
sg187
F0.0
sg188
I0
sg189
(lp261
F0.0
aF0.0
asg191
(dp262
g193
F1.0
sg194
F0.0
sg195
F0.0
sg196
F1.0
ssg197
(lp263
F0.0
aF0.0
asg199
(lp264
F0.0
aF0.0
asg201
F0.0
sg193
F0.0
sbsg158
(isnclasses
snstats
p265
(dp266
g171
F0.0
sg172
F0.0
sg173
(lp267
F0.0
aF0.0
asg175
(lp268
F0.0
aF0.0
asg177
Nsg178
Nsg179
F0.0
sg180
F0.0
sg181
I0
sg182
I0
sg183
I0
sg184
(lp269
F0.0
aF0.0
asg186
g3
sg187
F0.0
sg188
I0
sg189
(lp270
F0.0
aF0.0
asg191
(dp271
g193
F1.0
sg194
F0.0
sg195
F0.0
sg196
F1.0
ssg197
(lp272
F0.0
aF0.0
asg199
(lp273
F0.0
aF0.0
asg201
F0.0
sg193
F0.0
sbsg159
(isnclasses
snstats
p274
(dp275
g171
F0.0
sg172
F0.0
sg173
(lp276
F0.0
aF0.0
asg175
(lp277
F0.0
aF0.0
asg177
Nsg178
Nsg179
F0.0
sg180
F0.0
sg181
I0
sg182
I0
sg183
I0
sg184
(lp278
F0.0
aF0.0
asg186
g3
sg187
F0.0
sg188
I0
sg189
(lp279
F0.0
aF0.0
asg191
(dp280
g193
F1.0
sg194
F0.0
sg195
F0.0
sg196
F1.0
ssg197
(lp281
F0.0
aF0.0
asg199
(lp282
F0.0
aF0.0
asg201
F0.0
sg193
F0.0
sbsg160
(isnclasses
snstats
p283
(dp284
g171
F0.0
sg172
F0.0
sg173
(lp285
F0.0
aF0.0
asg175
(lp286
F0.0
aF0.0
asg177
Nsg178
Nsg179
F0.0
sg180
F0.0
sg181
I0
sg182
I0
sg183
I0
sg184
(lp287
F0.0
aF0.0
asg186
g3
sg187
F0.0
sg188
I0
sg189
(lp288
F0.0
aF0.0
asg191
(dp289
g193
F1.0
sg194
F0.0
sg195
F0.0
sg196
F1.0
ssg197
(lp290
F0.0
aF0.0
asg199
(lp291
F0.0
aF0.0
asg201
F0.0
sg193
F0.0
sbssS'lc'
p292
cnumpy.core.multiarray
_reconstruct
p293
(cnumpy
ndarray
p294
(I0
tp295
S'b'
p296
tp297
Rp298
(I1
(I36
tp299
cnumpy
dtype
p300
(S'V18'
p301
I0
I1
tp302
Rp303
(I3
S'|'
p304
N(S'photcode'
p305
S'mjd'
p306
S'mag'
p307
S'dmag'
p308
S'ccmag'
p309
tp310
(dp311
g306
(g300
(S'f4'
p312
I0
I1
tp313
Rp314
(I3
S'<'
p315
NNNI-1
I-1
I0
tp316
bI2
tp317
sg309
(g314
I14
tp318
sg307
(g314
I6
tp319
sg305
(g300
(S'S2'
p320
I0
I1
tp321
Rp322
(I3
S'|'
p323
NNNI2
I1
I0
tp324
bI0
tp325
sg308
(g314
I10
tp326
sI18
I1
I16
tp327
bI00
S'03B\x00SGh\x91\x8dA\x8f\xc2\xf5<\xb0r\x8dA03G\x00SG\x8bl\x8dA\xbct\x13=\xd3M\x8dA03\\\x02SG{\x14\x8eA\x02+\x07=\xb6\xf3\x8dA03A\x03SG\xac\x1c\x8eAo\x12\x03=\xf4\xfd\x8dA03<\x05SG\x1dZ\x8fA\xb6\xf3}=q=\x8fA037.SGB`\x96AB`e=\xa2E\x96A03#6SG=\n\x96A\xd9\xce\xf7=m\xe7\x95A0338SG\xfe\xd4\x97AJ\x0c\x02>9\xb4\x97A03\x1b:SG}?\x96A#\xdb\xf9=\xc5 \x96A03"<SG+\x87\x97A#\xdb\xf9=sh\x97A03\x1aASG}?\x99A%\x06\x01>\xf6(\x99A03\x15TSG5^\x9cA\xf0\xa7F>\xecQ\x9cA13A\x00SGZd\x8aAB`\xe5<sh\x8aA13[\x02SGV\x0e\x8bA\xa6\x9b\xc4<V\x0e\x8bA13@\x03SGNb\x8bA\xa6\x9b\xc4<Zd\x8bA13\x1d\x1bSG\xfa~\x91Ao\x12\x83=\\\x8f\x91A13\'\x1dSG\x10X\x90A\x8f\xc2u=\xe1z\x90A13"6SG\x0c\x02\x96A\x7fj\xbc=/\xdd\x95A1328SG\xee|\x95A\\\x8f\xc2=\x7fj\x95A13\x1a:SGb\x10\x96A\xb6\xf3}=\xf4\xfd\x95A13!<SG\xa0\x1a\x96A\x87\x16Y=V\x0e\x96A13\x19ASGsh\x96AB`e=\xb0r\x96A13\x15TSGb\x10\x98A\x7fj\xbc=X9\x98A14A\x00SG\x89A\x89AX9\xb4<33\x89A14E\x00SG\xc7K\x89A\xa6\x9b\xc4<q=\x89A14[\x02SG\x9c\xc4\x89A\xcd\xcc\xcc<9\xb4\x89A14?\x03SGD\x8b\x8aA\xb6\xf3\xfd<\xe1z\x8aA14;\x05SG\x12\x83\x8cAh\x91m=\xa4p\x8cA14\x1d\x1bSG;\xdf\x8fA\xecQ\xb8=#\xdb\x8fA14\'\x1dSG\'1\x91A\\\x8f\xc2=\xf6(\x91A146.SGZd\x93A\xc9v\xbe=\xf8S\x93A1428SG\x0c\x02\x95A\xecQ\xb8=m\xe7\x94A14\x1a:SGq=\x96A5^\xba=\xc5 \x96A14!<SG\x19\x04\x96A\x83\xc0\xca=\x85\xeb\x95A14\x18ASGJ\x0c\x96A\\\x8f\xc2=\x0c\x02\x96A14\x14TSG\xbaI\x99A\x9c\xc4 >\xc7K\x99A'
p328
tp329
bsS'Vmag'
p330
NsS'Rmax'
p331
(dp332
sS'polyfit'
p333
NsS'ebmvtot'
p334
F0.0
sS'Vmax'
p335
F0.0
sS'type'
p336
S'Ib/c'
p337
sS'metadata'
p338
(dp339
g3
S'-'
p340
sS'cfaUmaxerr'
p341
g340
sS'v2 Fe II 5169 date'
p342
g340
sS'D11Rmax'
p343
g3
sS'v_z'
p344
S'6220'
p345
sS'E(b-v)hosterr'
p346
g340
sS'v1 Fe II 5018 date'
p347
g340
sS'cfaRmaxerr'
p348
g340
sS'CfA RJD bootstrap'
p349
S'<0000000'
p350
sS'inclination from axes sdss'
p351
g340
sS'my E(B-V)host from inclination'
p352
g340
sS'RA'
p353
S'23:04:35'
p354
sS'cfaVmaxerr'
p355
g340
sS'Dm15 (with Lyman BC correction)'
p356
g3
sS'CfA E(B-V)host'
p357
g3
sS'lcvquality'
p358
S'3'
p359
sS'v1 Fe II 5169 '
p360
g340
sS'decdeg'
p361
S'7.60583333333'
p362
sS'cfaVmax'
p363
g340
sS'CfA VJD bootstrap error'
p364
g340
sS'MaxVJD'
p365
S'<2454016 '
p366
sS'D11Vmaxdate'
p367
g3
sS'v1 Fe II 5018 '
p368
g340
sS'D11Rmaxdate'
p369
g3
sS'D11Rmaxerr'
p370
g3
sS'Fe II 5169 at maximum (linear interpolation error)'
p371
S'#VALUE!'
p372
sS'D11Vmaxerr'
p373
g3
sS'axis ratio sdss'
p374
g340
sS'D11Rmaxdateerr'
p375
g3
sS'v2 FeII 5018 date'
p376
g340
sS'DEC'
p377
S'7:36:21'
p378
sS'Type'
p379
g337
sS'cfaJmaxerr'
p380
g340
sS'SNname'
p381
S'sn2006ir'
p382
sS'Fe II 5169 at maximum (linear interpolation)'
p383
g340
sS'inclination'
p384
g340
sS'cfaHmaxerr'
p385
g340
sS'DFS E(B-V)'
p386
g340
sS'image subtraction needed'
p387
S'?'
p388
sS'CfA BJD bootstrap'
p389
S'<0000000'
p390
sS'v1 Fe II 5169 date'
p391
g340
sS' CfA E(B-V)hosterr'
p392
g3
sS'v2 Fe II 5018'
p393
g340
sS'P13 UV data'
p394
S'0'
p395
sS'cfaHmax'
p396
g3
sS'v2 Fe II 5169 error'
p397
g340
sS'CfA IJD bootstrap'
p398
S'<0000000'
p399
sS'cfaKmax'
p400
g340
sS'comment'
p401
g3
sS'dVJD CfA bootstrap'
p402
g340
sS'radeg'
p403
S'346.145833333'
p404
sS'distance Mpc'
p405
g340
sS'inclination error'
p406
g340
sS'PAIRITEL'
p407
g395
sS'cfaImax'
p408
g340
sS'Fe II 5169 new'
p409
g3
sS'cfaBmaxerr'
p410
g340
sS'v2 Fe II 5018 error'
p411
g340
sS'E(b-v)host'
p412
g340
sS'CfA photometric quality (1best, 3 worst)'
p413
g340
sS'inclination/E(B-V) ref'
p414
g340
sS'cfaBmax'
p415
g340
sS'CfA IJD error'
p416
S'<0000000'
p417
sS'D11Vmaxdateerr'
p418
g3
sS'CfA dm15'
p419
g340
sS'Fe II 5018 at maximum (linear interpolation)'
p420
g340
sS'CfA BJD error'
p421
S'<0000000'
p422
sS'earliestV'
p423
S'--'
p424
sS'inclination from leida'
p425
g340
sS'CfA dm15 linear'
p426
g340
sS'z'
p427
S'0.021'
p428
sS'cfaImaxerr'
p429
g340
sS'cfaJmax'
p430
g3
sS'max_ref'
p431
S'CfA'
p432
sS'v2 Fe II 5169'
p433
g340
sS'FeII51691or2'
p434
S'#DIV/0!'
p435
sS'CfA VJD bootstrap'
p436
g340
sS'v1 Fe II 5018 error'
p437
g340
sS'MaxVdate'
p438
g340
sS'z_ref'
p439
S'http://arxiv.org/pdf/1206.2643.pdf'
p440
sS'D11Vmax'
p441
g3
sS'distanced11'
p442
g340
sS'separation '
p443
g340
sS'hostgal'
p444
S'J230435+0736'
p445
sS'E(B-V)'
p446
g340
sS'inclination from axes'
p447
g340
sS'CfA RJD error'
p448
S'<0000000'
p449
sS'cfaKmaxerr'
p450
g340
sS'axis ratio'
p451
g340
sS'MaxVMag'
p452
S'<17.8  '
p453
sS'cfaRmax'
p454
g340
sS'v1 Fe II 5169 error'
p455
g340
sS'E(B-V) SF2011'
p456
S'0.0393'
p457
sS'cfaUmax'
p458
g340
ssS'fnir'
p459
Nsg183
I00
sS'polysol'
p460
(dp461
g150
Nsg151
Nsg152
Nsg153
Nsg154
Nsg155
Nsg156
Nsg157
Nsg158
Nsg159
Nsg160
NssS'nir'
p462
I00
sS'maxmags'
p463
(dp464
g150
(dp465
g11
F0.0
sg60
Fnan
sg62
Fnan
ssg151
(dp466
g11
F0.0
sg60
Fnan
sg62
Fnan
ssg152
(dp467
g11
F0.0
sg60
Fnan
sg62
Fnan
ssg153
(dp468
g11
F0.0
sg60
Fnan
sg62
Fnan
ssg154
(dp469
g11
F0.0
sg60
Fnan
sg62
Fnan
ssg155
(dp470
g11
F0.0
sg60
Fnan
sg62
Fnan
ssg156
(dp471
g11
F0.0
sg60
Fnan
sg62
Fnan
ssg157
(dp472
g11
F0.0
sg60
Fnan
sg62
Fnan
ssg158
(dp473
g11
F0.0
sg60
Fnan
sg62
Fnan
ssg159
(dp474
g11
F0.0
sg60
Fnan
sg62
Fnan
ssg160
(dp475
g11
F0.0
sg60
Fnan
sg62
Fnan
sssS'snspline'
p476
(dp477
g150
Nsg151
Nsg152
Nsg153
Nsg154
Nsg155
Nsg156
Nsg157
Nsg158
Nsg159
Nsg160
NssS'pipeline'
p478
S'CfA3'
p479
sS'name'
p480
S'sn2006ir'
p481
sS'solution'
p482
(dp483
g150
(dp484
S'resid'
p485
NsS'pars'
p486
NsS'sol'
p487
NsS'deg'
p488
Nssg151
(dp489
g485
Nsg486
Nsg487
Nsg488
Nssg152
(dp490
g485
Nsg486
Nsg487
Nsg488
Nssg153
(dp491
g485
Nsg486
Nsg487
Nsg488
Nssg154
(dp492
g485
Nsg486
Nsg487
Nsg488
Nssg155
(dp493
g485
Nsg486
Nsg487
Nsg488
Nssg156
(dp494
g485
Nsg486
Nsg487
Nsg488
Nssg157
(dp495
g485
Nsg486
Nsg487
Nsg488
Nssg158
(dp496
g485
Nsg486
Nsg487
Nsg488
Nssg159
(dp497
g485
Nsg486
Nsg487
Nsg488
Nssg160
(dp498
g485
Nsg486
Nsg487
Nsg488
NsssS'su'
p499
(itemplutils
setupvars
p500
(dp501
S'photcodes'
p502
(dp503
g150
(S'02'
p504
S'07'
p505
tp506
sg151
(S'05'
p507
S'0a'
p508
tp509
sg152
(g152
g152
tp510
sg153
(g153
g153
tp511
sg154
(g154
g154
tp512
sg156
(S'04'
p513
S'09'
p514
tp515
sg159
(S'01'
p516
S'06'
p517
tp518
sg158
(S'03'
p519
S'08'
p520
tp521
sg155
(S'14'
p522
S'0c'
p523
tp524
sg160
(S'13'
p525
S'0b'
p526
tp527
sg157
(S'15'
p528
g528
tp529
ssS'mysymbols'
p530
(dp531
S'Ic-bl'
p532
S'v'
p533
sS'other'
p534
S'x'
p535
sS'IIb'
p536
S'^'
p537
sS'IIb-n'
p538
S'>'
p539
sS'Ic'
p540
S's'
p541
sS'Ib'
p542
S'o'
p543
ssS'bandsnonir'
p544
(lp545
g159
ag157
ag150
ag158
ag156
ag151
ag160
ag155
asS'ebmvcfa'
p546
(dp547
S'07gr'
p548
F0.0462
sS'09iz'
p549
F0.064
sS'04aw'
p550
F0.352
sS'06aj'
p551
F0.141
sS'07ag'
p552
F0.627
sS'02ap'
p553
F0.03
sS'05kl'
p554
F1.344
sS'08bo'
p555
F0.294
sS'06lv'
p556
F0.574
sS'05kz'
p557
F0.437
sS'06F'
p558
F0.533
sS'07uy'
p559
F0.378
sS'08D'
p560
F0.572
sS'05bf'
p561
F0.05
sS'09jf'
p562
F0.045
sS'06bf'
p563
F0.368
sS'06fo'
p564
F0.201
sS'05mf'
p565
F0.231
sS'06T'
p566
F0.397
sS'07ce'
p567
F0.082
sS'07ru'
p568
F0.01
sS'03jd'
p569
F0.1
sS'07cl'
p570
F0.258
sS'09er'
p571
F0.11
sS'06el'
p572
F0.147
sS'06ep'
p573
F0.448
sS'07kj'
p574
F0.295
sS'07C'
p575
F0.65
sS'05hg'
p576
F0.244
ssS'insts'
p577
(lp578
S'shooter'
p579
aS'kepler'
p580
aS'mini'
p581
asS'mycolors'
p582
(dp583
g150
S'#0066cc'
p584
sg151
S'm'
p585
sg152
S'#FFB700'
p586
sg153
S'#A4A4A4'
p587
sg154
S'#4F088A'
p588
sg156
S'#b20000'
p589
sg159
S'k'
p590
sg158
S'#47b56c'
p591
sg155
g585
sg160
g589
sg157
g590
ssS'bands'
p592
(lp593
g159
ag157
ag150
ag158
ag156
ag151
ag160
ag155
ag154
ag152
ag153
asS'mylines'
p594
(dp595
g532
S'dotted'
p596
sg534
S'solid'
p597
sg536
g597
sg538
g597
sg540
g597
sg542
S'dashed'
p598
ssS'mytypecolors'
p599
(dp600
g532
g160
sg534
g590
sg536
S'g'
p601
sg538
S'y'
p602
sg540
g296
sg542
g590
ssS'mycolorcolors'
p603
(dp604
g45
S'#9999EE'
p605
sg33
S'#0B0B3B'
p606
sg43
g589
sg8
S'SlateBlue'
p607
sg13
g605
sg15
g585
sg23
g591
sg21
g585
sg49
g606
sg35
S'#70B8FF'
p608
sg31
g606
sg47
g606
sg37
g584
sg39
S'#FFCC80'
p609
sg51
g590
sg53
S'purple'
p610
sg41
g609
sg17
g589
sg19
g591
ssS'AonEBmV'
p611
(dp612
S'm2'
p613
F4.3
sg150
F4.315
sS'w1'
p614
F4.3
sg151
F1.94
sg152
F0.576
sg153
F0.367
sg154
F0.902
sg155
F2.086
sg156
F2.673
sg159
F5.434
sS'w2'
p615
F4.3
sS'vv'
p616
F3.315
sg158
F3.315
sg157
F5.155
sS'uu'
p617
F5.155
sg160
F2.751
ssS'instcodes'
p618
(dp619
g581
I1
sg580
I0
sg579
I0
ssS'ebmvs'
p620
(dp621
S'04ge'
p622
F0.0754
sS'04gk'
p623
F0.0247
sS'07aw'
p624
F0.0338
sS'04gt'
p625
F0.0398
sS'06gi'
p626
F0.0205
sS'04gv'
p627
F0.0286
sS'04gq'
p628
F0.0627
sg552
F0.025
sg565
F0.0153
sS'97dq'
p629
F0.0382
sS'05ek'
p630
F0.1811
sS'05eo'
p631
F0.0585
sS'98fa'
p632
F0.0382
sS'01ej'
p633
F0.046
sS'93J'
p634
F0.069
sg564
F0.025
sS'05nb'
p635
F0.032
sS'06ir'
p636
F0.0393
sS'09K'
p637
F0.0491
sS'04ff'
p638
F0.0281
sS'04fe'
p639
F0.021
sS'04ao'
p640
F0.0893
sg550
F0.018
sg554
F0.0219
sg556
F0.0245
sS'06ck'
p641
F0.0245
sS'05kf'
p642
F0.0378
sS'07hb'
p643
F0.0518
sg557
F0.046
sS'06ld'
p644
F0.0144
sS'06lc'
p645
F0.0556
sS'05da'
p646
F0.2483
sS'08hh'
p647
F0.0427
sg566
F0.0647
sS'07iq'
p648
F0.1182
sg571
F0.0389
sS'97ef'
p649
F0.0366
sS'96cb'
p650
F0.0262
sg549
F0.0729
sS'05az'
p651
F0.0097
sS'06cb'
p652
F0.0094
sS'05ar'
p653
F0.0394
sg555
F0.0513
sS'07bg'
p654
F0.0179
sS'01ai'
p655
F0.0081
sS'06jc'
p656
F0.0173
sS'06ss'
p657
F0.0178
sg558
F0.1635
sg559
F0.0194
sg561
F0.0385
sS'02ji'
p658
F0.0217
sS'97X'
p659
F0.0237
sg562
F0.0971
sg563
F0.0216
sS'06ba'
p660
F0.0452
sS'08an'
p661
F0.045
sg567
F0.02
sg568
F0.2254
sg569
F0.0784
sg570
F0.037
sS'07rz'
p662
F0.1723
sg572
F0.0973
sg573
F0.031
sg574
F0.0691
sS'08ax'
p663
F0.0186
sS'05U'
p664
F0.0143
sS'07ke'
p665
F0.0954
sS'08aq'
p666
F0.0383
sg548
F0.0535
sS'05la'
p667
F0.01
sS'94I'
p668
F0.0302
sS'95bb'
p669
F0.0948
sg551
F0.1267
sg553
F0.062
sS'98dt'
p670
F0.0219
sS'04eu'
p671
F0.0466
sS'00H'
p672
F0.1964
sS'01gd'
p673
F0.0098
sS'04dn'
p674
F0.0415
sg560
F0.0194
sS'95F'
p675
F0.0311
sS'08cw'
p676
F0.006
sS'07D'
p677
F0.2881
sg575
F0.0363
sg576
F0.0901
sS'04dk'
p678
F0.1357
sS'07I'
p679
F0.025
ssS'ebmvhost'
p680
(dp681
g548
F0.038
sg553
F0.03
sg568
F0.01
sg569
F0.1
sg550
F0.352
sg663
F0.4
sg560
F0.5406
ssS'cs'
p682
(dp683
g8
I13
sg13
I8
sg15
I7
sg17
I3
sg19
I2
sg21
I6
sg23
I5
sg25
I16
sg27
I18
sg29
I17
sg31
I11
sg33
I19
sg35
I10
sg37
I1
sg39
I9
sg41
I14
sg43
I4
sg45
I9
sg47
I11
sg49
I15
sg51
I0
sg53
I12
ssS'bandsindex'
p684
(dp685
g150
I1
sg151
I4
sg152
I8
sg153
I9
sg154
I7
sg156
I3
sg159
I0
sg158
I2
sg155
I6
sg160
I5
sg157
I0
ssS'bandsnir'
p686
(lp687
g154
ag152
ag153
asS'myshapes'
p688
(dp689
g150
g541
sg151
g539
sg152
g541
sg153
g543
sg154
g537
sg156
g533
sg159
g537
sg158
g543
sg155
S'h'
p690
sg160
S'd'
p691
sg157
g537
ssS'types'
p692
(lp693
g542
ag540
ag536
ag532
ag538
asS'cbands'
p694
(lp695
g51
ag47
ag31
ag37
ag19
ag17
ag43
ag23
ag21
ag15
ag13
ag53
ag8
ag41
ag49
ag25
ag29
ag27
aS'H-i'
p696
aS'J-H'
p697
aS'K-J'
p698
asbsS'n'
p699
NsS'dr15'
p700
F0.0
sS'photometry'
p701
(dp702
g150
(dp703
g58
g293
(g294
(I0
tp704
g296
tp705
Rp706
(I1
(I0
tp707
g300
(S'f8'
p708
I0
I1
tp709
Rp710
(I3
S'<'
p711
NNNI-1
I-1
I0
tp712
bI00
g3
tp713
bsS'camsys'
p714
(lp715
g3
asS'natmag'
p716
g293
(g294
(I0
tp717
g296
tp718
Rp719
(I1
(I0
tp720
g710
I00
g3
tp721
bsg60
g293
(g294
(I0
tp722
g296
tp723
Rp724
(I1
(I0
tp725
g710
I00
g3
tp726
bsS'extmag'
p727
g293
(g294
(I0
tp728
g296
tp729
Rp730
(I1
(I0
tp731
g710
I00
g3
tp732
bsg62
g293
(g294
(I0
tp733
g296
tp734
Rp735
(I1
(I0
tp736
g710
I00
g3
tp737
bssg151
(dp738
g58
g293
(g294
(I0
tp739
g296
tp740
Rp741
(I1
(I0
tp742
g710
I00
g3
tp743
bsg714
(lp744
g3
asg716
g293
(g294
(I0
tp745
g296
tp746
Rp747
(I1
(I0
tp748
g710
I00
g3
tp749
bsg60
g293
(g294
(I0
tp750
g296
tp751
Rp752
(I1
(I0
tp753
g710
I00
g3
tp754
bsg727
g293
(g294
(I0
tp755
g296
tp756
Rp757
(I1
(I0
tp758
g710
I00
g3
tp759
bsg62
g293
(g294
(I0
tp760
g296
tp761
Rp762
(I1
(I0
tp763
g710
I00
g3
tp764
bssg152
(dp765
g58
g293
(g294
(I0
tp766
g296
tp767
Rp768
(I1
(I0
tp769
g710
I00
g3
tp770
bsg714
(lp771
g3
asg716
g293
(g294
(I0
tp772
g296
tp773
Rp774
(I1
(I0
tp775
g710
I00
g3
tp776
bsg60
g293
(g294
(I0
tp777
g296
tp778
Rp779
(I1
(I0
tp780
g710
I00
g3
tp781
bsg727
g293
(g294
(I0
tp782
g296
tp783
Rp784
(I1
(I0
tp785
g710
I00
g3
tp786
bsg62
g293
(g294
(I0
tp787
g296
tp788
Rp789
(I1
(I0
tp790
g710
I00
g3
tp791
bssg153
(dp792
g58
g293
(g294
(I0
tp793
g296
tp794
Rp795
(I1
(I0
tp796
g710
I00
g3
tp797
bsg714
(lp798
g3
asg716
g293
(g294
(I0
tp799
g296
tp800
Rp801
(I1
(I0
tp802
g710
I00
g3
tp803
bsg60
g293
(g294
(I0
tp804
g296
tp805
Rp806
(I1
(I0
tp807
g710
I00
g3
tp808
bsg727
g293
(g294
(I0
tp809
g296
tp810
Rp811
(I1
(I0
tp812
g710
I00
g3
tp813
bsg62
g293
(g294
(I0
tp814
g296
tp815
Rp816
(I1
(I0
tp817
g710
I00
g3
tp818
bssg154
(dp819
g58
g293
(g294
(I0
tp820
g296
tp821
Rp822
(I1
(I0
tp823
g710
I00
g3
tp824
bsg714
(lp825
g3
asg716
g293
(g294
(I0
tp826
g296
tp827
Rp828
(I1
(I0
tp829
g710
I00
g3
tp830
bsg60
g293
(g294
(I0
tp831
g296
tp832
Rp833
(I1
(I0
tp834
g710
I00
g3
tp835
bsg727
g293
(g294
(I0
tp836
g296
tp837
Rp838
(I1
(I0
tp839
g710
I00
g3
tp840
bsg62
g293
(g294
(I0
tp841
g296
tp842
Rp843
(I1
(I0
tp844
g710
I00
g3
tp845
bssg155
(dp846
g58
g293
(g294
(I0
tp847
g296
tp848
Rp849
(I1
(I0
tp850
g710
I00
g3
tp851
bsg714
(lp852
g3
asg716
g293
(g294
(I0
tp853
g296
tp854
Rp855
(I1
(I0
tp856
g710
I00
g3
tp857
bsg60
g293
(g294
(I0
tp858
g296
tp859
Rp860
(I1
(I0
tp861
g710
I00
g3
tp862
bsg727
g293
(g294
(I0
tp863
g296
tp864
Rp865
(I1
(I0
tp866
g710
I00
g3
tp867
bsg62
g293
(g294
(I0
tp868
g296
tp869
Rp870
(I1
(I0
tp871
g710
I00
g3
tp872
bssg156
(dp873
g58
g293
(g294
(I0
tp874
g296
tp875
Rp876
(I1
(I0
tp877
g710
I00
g3
tp878
bsg714
(lp879
g3
asg716
g293
(g294
(I0
tp880
g296
tp881
Rp882
(I1
(I0
tp883
g710
I00
g3
tp884
bsg60
g293
(g294
(I0
tp885
g296
tp886
Rp887
(I1
(I0
tp888
g710
I00
g3
tp889
bsg727
g293
(g294
(I0
tp890
g296
tp891
Rp892
(I1
(I0
tp893
g710
I00
g3
tp894
bsg62
g293
(g294
(I0
tp895
g296
tp896
Rp897
(I1
(I0
tp898
g710
I00
g3
tp899
bssg157
(dp900
g58
g293
(g294
(I0
tp901
g296
tp902
Rp903
(I1
(I0
tp904
g710
I00
g3
tp905
bsg714
(lp906
g3
asg716
g293
(g294
(I0
tp907
g296
tp908
Rp909
(I1
(I0
tp910
g710
I00
g3
tp911
bsg60
g293
(g294
(I0
tp912
g296
tp913
Rp914
(I1
(I0
tp915
g710
I00
g3
tp916
bsg727
g293
(g294
(I0
tp917
g296
tp918
Rp919
(I1
(I0
tp920
g710
I00
g3
tp921
bsg62
g293
(g294
(I0
tp922
g296
tp923
Rp924
(I1
(I0
tp925
g710
I00
g3
tp926
bssg158
(dp927
g58
g293
(g294
(I0
tp928
g296
tp929
Rp930
(I1
(I0
tp931
g710
I00
g3
tp932
bsg714
(lp933
g3
asg716
g293
(g294
(I0
tp934
g296
tp935
Rp936
(I1
(I0
tp937
g710
I00
g3
tp938
bsg60
g293
(g294
(I0
tp939
g296
tp940
Rp941
(I1
(I0
tp942
g710
I00
g3
tp943
bsg727
g293
(g294
(I0
tp944
g296
tp945
Rp946
(I1
(I0
tp947
g710
I00
g3
tp948
bsg62
g293
(g294
(I0
tp949
g296
tp950
Rp951
(I1
(I0
tp952
g710
I00
g3
tp953
bssg159
(dp954
g58
g293
(g294
(I0
tp955
g296
tp956
Rp957
(I1
(I0
tp958
g710
I00
g3
tp959
bsg714
(lp960
g3
asg716
g293
(g294
(I0
tp961
g296
tp962
Rp963
(I1
(I0
tp964
g710
I00
g3
tp965
bsg60
g293
(g294
(I0
tp966
g296
tp967
Rp968
(I1
(I0
tp969
g710
I00
g3
tp970
bsg727
g293
(g294
(I0
tp971
g296
tp972
Rp973
(I1
(I0
tp974
g710
I00
g3
tp975
bsg62
g293
(g294
(I0
tp976
g296
tp977
Rp978
(I1
(I0
tp979
g710
I00
g3
tp980
bssg160
(dp981
g58
g293
(g294
(I0
tp982
g296
tp983
Rp984
(I1
(I0
tp985
g710
I00
g3
tp986
bsg714
(lp987
g3
asg716
g293
(g294
(I0
tp988
g296
tp989
Rp990
(I1
(I0
tp991
g710
I00
g3
tp992
bsg60
g293
(g294
(I0
tp993
g296
tp994
Rp995
(I1
(I0
tp996
g710
I00
g3
tp997
bsg727
g293
(g294
(I0
tp998
g296
tp999
Rp1000
(I1
(I0
tp1001
g710
I00
g3
tp1002
bsg62
g293
(g294
(I0
tp1003
g296
tp1004
Rp1005
(I1
(I0
tp1006
g710
I00
g3
tp1007
bsssb.