(isnclasses
mysn
p0
(dp1
S'camsystem'
p2
S''
p3
sS'dVmax'
p4
F0.0
sS'nomaxdate'
p5
I00
sS'maxcolors'
p6
(dp7
S'V-K'
p8
(dp9
S'color'
p10
Fnan
sS'epoch'
p11
F0.0
sS'dcolor'
p12
Fnan
ssS'V-H'
p13
(dp14
g10
Fnan
sg11
F0.0
sg12
Fnan
ssS'V-I'
p15
(dp16
g10
Fnan
sg11
F0.0
sg12
Fnan
ssS'R-I'
p17
(dp18
g10
Fnan
sg11
F0.0
sg12
Fnan
ssS'V-R'
p19
(dp20
g10
Fnan
sg11
F0.0
sg12
Fnan
ssS'V-i'
p21
(dp22
g10
Fnan
sg11
F0.0
sg12
Fnan
ssS'V-r'
p23
(dp24
g10
Fnan
sg11
F0.0
sg12
Fnan
ssS'B-J'
p25
(dp26
g10
Fnan
sg11
F0.0
sg12
Fnan
ssS'B-K'
p27
(dp28
g10
Fnan
sg11
F0.0
sg12
Fnan
ssS'B-H'
p29
(dp30
g10
Fnan
sg11
F0.0
sg12
Fnan
ssS'B-I'
p31
(dp32
g10
Fnan
sg11
F0.0
sg12
Fnan
ssS'B-R'
p33
(dp34
g10
Fnan
sg11
F0.0
sg12
Fnan
ssS'J-K'
p35
(dp36
g10
Fnan
sg11
F0.0
sg12
Fnan
ssS'B-V'
p37
(dp38
g10
Fnan
sg11
F0.0
sg12
Fnan
ssS'H-J'
p39
(dp40
g10
Fnan
sg11
F0.0
sg12
Fnan
ssS'H-K'
p41
(dp42
g10
Fnan
sg11
F0.0
sg12
Fnan
ssS'r-i'
p43
(dp44
g10
Fnan
sg11
F0.0
sg12
Fnan
ssS'I-H'
p45
(dp46
g10
Fnan
sg11
F0.0
sg12
Fnan
ssS'B-i'
p47
(dp48
g10
Fnan
sg11
F0.0
sg12
Fnan
ssS'B-r'
p49
(dp50
g10
Fnan
sg11
F0.0
sg12
Fnan
ssS'U-B'
p51
(dp52
g10
Fnan
sg11
F0.0
sg12
Fnan
ssS'r-K'
p53
(dp54
g10
Fnan
sg11
F0.0
sg12
Fnan
sssS'colors'
p55
(dp56
g8
(dp57
S'mjd'
p58
(lp59
sS'dmag'
p60
(lp61
sS'mag'
p62
(lp63
ssg13
(dp64
g58
(lp65
sg60
(lp66
sg62
(lp67
ssg15
(dp68
g58
(lp69
sg60
(lp70
sg62
(lp71
ssg17
(dp72
g58
(lp73
sg60
(lp74
sg62
(lp75
ssg19
(dp76
g58
(lp77
sg60
(lp78
sg62
(lp79
ssg21
(dp80
g58
(lp81
sg60
(lp82
sg62
(lp83
ssg23
(dp84
g58
(lp85
sg60
(lp86
sg62
(lp87
ssg25
(dp88
g58
(lp89
sg60
(lp90
sg62
(lp91
ssg27
(dp92
g58
(lp93
sg60
(lp94
sg62
(lp95
ssg29
(dp96
g58
(lp97
sg60
(lp98
sg62
(lp99
ssg31
(dp100
g58
(lp101
sg60
(lp102
sg62
(lp103
ssg33
(dp104
g58
(lp105
sg60
(lp106
sg62
(lp107
ssg35
(dp108
g58
(lp109
sg60
(lp110
sg62
(lp111
ssg37
(dp112
g58
(lp113
sg60
(lp114
sg62
(lp115
ssg39
(dp116
g58
(lp117
sg60
(lp118
sg62
(lp119
ssg41
(dp120
g58
(lp121
sg60
(lp122
sg62
(lp123
ssg43
(dp124
g58
(lp125
sg60
(lp126
sg62
(lp127
ssg45
(dp128
g58
(lp129
sg60
(lp130
sg62
(lp131
ssg47
(dp132
g58
(lp133
sg60
(lp134
sg62
(lp135
ssg49
(dp136
g58
(lp137
sg60
(lp138
sg62
(lp139
ssg51
(dp140
g58
(lp141
sg60
(lp142
sg62
(lp143
ssg53
(dp144
g58
(lp145
sg60
(lp146
sg62
(lp147
sssS'filters'
p148
(dp149
S'B'
p150
I0
sS'I'
p151
I0
sS'H'
p152
I0
sS'K'
p153
I0
sS'J'
p154
I0
sS'i'
p155
I0
sS'R'
p156
I0
sS'u'
p157
I0
sS'V'
p158
I0
sS'U'
p159
I0
sS'r'
p160
I0
ssS'snnameshort'
p161
S'01ej'
p162
sS'templsol'
p163
(dp164
g150
Nsg151
Nsg152
Nsg153
Nsg154
Nsg155
Nsg156
Nsg157
Nsg158
Nsg159
Nsg160
NssS'Vmaxmag'
p165
F0.0
sS'Vmaxflag'
p166
I00
sS'stats'
p167
(dp168
g150
(isnclasses
snstats
p169
(dp170
S'polyrchisq'
p171
F0.0
sS'Rdm15'
p172
F0.0
sS'tlim'
p173
(lp174
F0.0
aF0.0
asS'maglim'
p175
(lp176
F0.0
aF0.0
asS'templresid'
p177
NsS'polyresid'
p178
NsS'dm15'
p179
F0.0
sS'polydeg'
p180
F0.0
sS'success'
p181
I0
sS'flagmiss15'
p182
I0
sS'flagmissmax'
p183
I0
sS'm15data'
p184
(lp185
F0.0
aF0.0
asS'band'
p186
g3
sS'templrchisq'
p187
F0.0
sS'flagbadfit'
p188
I0
sS'Rdm15lin'
p189
(lp190
F0.0
aF0.0
asS'templatefit'
p191
(dp192
S'stretch'
p193
F1.0
sS'yoffset'
p194
F0.0
sS'xoffset'
p195
F0.0
sS'xstretch'
p196
F1.0
ssS'dm15lin'
p197
(lp198
F0.0
aF0.0
asS'maxjd'
p199
(lp200
F0.0
aF0.0
asS'norm'
p201
F0.0
sg193
F0.0
sbsg151
(isnclasses
snstats
p202
(dp203
g171
F0.0
sg172
F0.0
sg173
(lp204
F0.0
aF0.0
asg175
(lp205
F0.0
aF0.0
asg177
Nsg178
Nsg179
F0.0
sg180
F0.0
sg181
I0
sg182
I0
sg183
I0
sg184
(lp206
F0.0
aF0.0
asg186
g3
sg187
F0.0
sg188
I0
sg189
(lp207
F0.0
aF0.0
asg191
(dp208
g193
F1.0
sg194
F0.0
sg195
F0.0
sg196
F1.0
ssg197
(lp209
F0.0
aF0.0
asg199
(lp210
F0.0
aF0.0
asg201
F0.0
sg193
F0.0
sbsg152
(isnclasses
snstats
p211
(dp212
g171
F0.0
sg172
F0.0
sg173
(lp213
F0.0
aF0.0
asg175
(lp214
F0.0
aF0.0
asg177
Nsg178
Nsg179
F0.0
sg180
F0.0
sg181
I0
sg182
I0
sg183
I0
sg184
(lp215
F0.0
aF0.0
asg186
g3
sg187
F0.0
sg188
I0
sg189
(lp216
F0.0
aF0.0
asg191
(dp217
g193
F1.0
sg194
F0.0
sg195
F0.0
sg196
F1.0
ssg197
(lp218
F0.0
aF0.0
asg199
(lp219
F0.0
aF0.0
asg201
F0.0
sg193
F0.0
sbsg153
(isnclasses
snstats
p220
(dp221
g171
F0.0
sg172
F0.0
sg173
(lp222
F0.0
aF0.0
asg175
(lp223
F0.0
aF0.0
asg177
Nsg178
Nsg179
F0.0
sg180
F0.0
sg181
I0
sg182
I0
sg183
I0
sg184
(lp224
F0.0
aF0.0
asg186
g3
sg187
F0.0
sg188
I0
sg189
(lp225
F0.0
aF0.0
asg191
(dp226
g193
F1.0
sg194
F0.0
sg195
F0.0
sg196
F1.0
ssg197
(lp227
F0.0
aF0.0
asg199
(lp228
F0.0
aF0.0
asg201
F0.0
sg193
F0.0
sbsg154
(isnclasses
snstats
p229
(dp230
g171
F0.0
sg172
F0.0
sg173
(lp231
F0.0
aF0.0
asg175
(lp232
F0.0
aF0.0
asg177
Nsg178
Nsg179
F0.0
sg180
F0.0
sg181
I0
sg182
I0
sg183
I0
sg184
(lp233
F0.0
aF0.0
asg186
g3
sg187
F0.0
sg188
I0
sg189
(lp234
F0.0
aF0.0
asg191
(dp235
g193
F1.0
sg194
F0.0
sg195
F0.0
sg196
F1.0
ssg197
(lp236
F0.0
aF0.0
asg199
(lp237
F0.0
aF0.0
asg201
F0.0
sg193
F0.0
sbsg155
(isnclasses
snstats
p238
(dp239
g171
F0.0
sg172
F0.0
sg173
(lp240
F0.0
aF0.0
asg175
(lp241
F0.0
aF0.0
asg177
Nsg178
Nsg179
F0.0
sg180
F0.0
sg181
I0
sg182
I0
sg183
I0
sg184
(lp242
F0.0
aF0.0
asg186
g3
sg187
F0.0
sg188
I0
sg189
(lp243
F0.0
aF0.0
asg191
(dp244
g193
F1.0
sg194
F0.0
sg195
F0.0
sg196
F1.0
ssg197
(lp245
F0.0
aF0.0
asg199
(lp246
F0.0
aF0.0
asg201
F0.0
sg193
F0.0
sbsg156
(isnclasses
snstats
p247
(dp248
g171
F0.0
sg172
F0.0
sg173
(lp249
F0.0
aF0.0
asg175
(lp250
F0.0
aF0.0
asg177
Nsg178
Nsg179
F0.0
sg180
F0.0
sg181
I0
sg182
I0
sg183
I0
sg184
(lp251
F0.0
aF0.0
asg186
g3
sg187
F0.0
sg188
I0
sg189
(lp252
F0.0
aF0.0
asg191
(dp253
g193
F1.0
sg194
F0.0
sg195
F0.0
sg196
F1.0
ssg197
(lp254
F0.0
aF0.0
asg199
(lp255
F0.0
aF0.0
asg201
F0.0
sg193
F0.0
sbsg157
(isnclasses
snstats
p256
(dp257
g171
F0.0
sg172
F0.0
sg173
(lp258
F0.0
aF0.0
asg175
(lp259
F0.0
aF0.0
asg177
Nsg178
Nsg179
F0.0
sg180
F0.0
sg181
I0
sg182
I0
sg183
I0
sg184
(lp260
F0.0
aF0.0
asg186
g3
sg187
F0.0
sg188
I0
sg189
(lp261
F0.0
aF0.0
asg191
(dp262
g193
F1.0
sg194
F0.0
sg195
F0.0
sg196
F1.0
ssg197
(lp263
F0.0
aF0.0
asg199
(lp264
F0.0
aF0.0
asg201
F0.0
sg193
F0.0
sbsg158
(isnclasses
snstats
p265
(dp266
g171
F0.0
sg172
F0.0
sg173
(lp267
F0.0
aF0.0
asg175
(lp268
F0.0
aF0.0
asg177
Nsg178
Nsg179
F0.0
sg180
F0.0
sg181
I0
sg182
I0
sg183
I0
sg184
(lp269
F0.0
aF0.0
asg186
g3
sg187
F0.0
sg188
I0
sg189
(lp270
F0.0
aF0.0
asg191
(dp271
g193
F1.0
sg194
F0.0
sg195
F0.0
sg196
F1.0
ssg197
(lp272
F0.0
aF0.0
asg199
(lp273
F0.0
aF0.0
asg201
F0.0
sg193
F0.0
sbsg159
(isnclasses
snstats
p274
(dp275
g171
F0.0
sg172
F0.0
sg173
(lp276
F0.0
aF0.0
asg175
(lp277
F0.0
aF0.0
asg177
Nsg178
Nsg179
F0.0
sg180
F0.0
sg181
I0
sg182
I0
sg183
I0
sg184
(lp278
F0.0
aF0.0
asg186
g3
sg187
F0.0
sg188
I0
sg189
(lp279
F0.0
aF0.0
asg191
(dp280
g193
F1.0
sg194
F0.0
sg195
F0.0
sg196
F1.0
ssg197
(lp281
F0.0
aF0.0
asg199
(lp282
F0.0
aF0.0
asg201
F0.0
sg193
F0.0
sbsg160
(isnclasses
snstats
p283
(dp284
g171
F0.0
sg172
F0.0
sg173
(lp285
F0.0
aF0.0
asg175
(lp286
F0.0
aF0.0
asg177
Nsg178
Nsg179
F0.0
sg180
F0.0
sg181
I0
sg182
I0
sg183
I0
sg184
(lp287
F0.0
aF0.0
asg186
g3
sg187
F0.0
sg188
I0
sg189
(lp288
F0.0
aF0.0
asg191
(dp289
g193
F1.0
sg194
F0.0
sg195
F0.0
sg196
F1.0
ssg197
(lp290
F0.0
aF0.0
asg199
(lp291
F0.0
aF0.0
asg201
F0.0
sg193
F0.0
sbssS'lc'
p292
cnumpy.core.multiarray
_reconstruct
p293
(cnumpy
ndarray
p294
(I0
tp295
S'b'
p296
tp297
Rp298
(I1
(I31
tp299
cnumpy
dtype
p300
(S'V18'
p301
I0
I1
tp302
Rp303
(I3
S'|'
p304
N(S'photcode'
p305
S'mjd'
p306
S'mag'
p307
S'dmag'
p308
S'ccmag'
p309
tp310
(dp311
g306
(g300
(S'f4'
p312
I0
I1
tp313
Rp314
(I3
S'<'
p315
NNNI-1
I-1
I0
tp316
bI2
tp317
sg309
(g314
I14
tp318
sg307
(g314
I6
tp319
sg305
(g300
(S'S2'
p320
I0
I1
tp321
Rp322
(I3
S'|'
p323
NNNI2
I1
I0
tp324
bI0
tp325
sg308
(g314
I10
tp326
sI18
I1
I16
tp327
bI00
S"02n\xdcKGT\xe3\x8eA\x9e\xef'=\xecQ\x8fA02y\xeeKGff\x99AX94=\xb8\x1e\x9aA02y\x02LG\xcb\xa1\x9cA\xbct\x93=B`\x9dA02\x83\x03LG\x8d\x97\x9cAo\x12\x83=\xecQ\x9dA02\x82\x04LG\xac\x1c\x9dAo\x12\x83=`\xe5\x9dA02l!LG\x19\x04\xa0A\x83\xc0\xca=\xfc\xa9\xa0A02l*LG!\xb0\x9eA\xc5 \xb0=\x0e-\x9fA02t+LG\\\x8f\x9eA\n\xd7\xa3=1\x08\x9fA03n\xdcKG\xe3\xa5\x89A\xf4\xfd\xd4<\xd5x\x89A03z\xeeKGj\xbc\x90A\x1b/\xdd<\xb0r\x90A03z\x02LG\xfc\xa9\x93A)\\\x0f=)\\\x93A03\x83\x04LG\xa8\xc6\x93A\x8f\xc2\xf5<\xd5x\x93A03m!LG\xf0\xa7\x98AP\x8d\x97=\xb0r\x98A03l*LG\xcb\xa1\x98A\x87\x16Y=\x7fj\x98A03u+LG\xaa\xf1\x97A9\xb4H=^\xba\x97A04o\xdcKG\xcf\xf7\x85A\x1b/\xdd<b\x10\x86A04z\xeeKGo\x12\x8cAB`\xe5<\xac\x1c\x8cA04z\x02LG'1\x8fA\x0e-\xb2=33\x8fA04\x84\x03LG\x12\x83\x8fA\xbct\x13=\xfa~\x8fA04\x84\x04LG\x81\x95\x8eA\x8f\xc2\xf5<\xe3\xa5\x8eA04m!LG7\x89\x93A`\xe5P=9\xb4\x93A04m*LG\xd3M\x93A\x7fj<=\xee|\x93A04v+LG-\xb2\x93A9\xb4H=\x17\xd9\x93A05p\xdcKGH\xe1\x83A\x96C\x0b=\xa8\xc6\x83A05{\xeeKG+\x87\x87A\x02+\x07=\x1dZ\x87A05{\x02LGF\xb6\x8aAJ\x0c\x02>\x1f\x85\x8aA05\x85\x03LG=\n\x8bA\x9e\xef'=\n\xd7\x8aA05\x84\x04LG\xa0\x1a\x8bA\x9e\xef'=m\xe7\x8aA05n!LG\xb2\x9d\x8fA\xd5xi=+\x87\x8fA05n*LGV\x0e\x90A\xb6\xf3}=\xc3\xf5\x8fA05v+LG\x93\x18\x8fA\x87\x16Y=\x19\x04\x8fA"
p328
tp329
bsS'Vmag'
p330
NsS'Rmax'
p331
(dp332
sS'polyfit'
p333
NsS'ebmvtot'
p334
F0.0
sS'Vmax'
p335
F0.0
sS'type'
p336
S'Ib'
p337
sS'metadata'
p338
(dp339
g3
S'0.774'
p340
sS'cfaUmaxerr'
p341
S'-'
p342
sS'v2 Fe II 5169 date'
p343
g342
sS'D11Rmax'
p344
g3
sS'v_z'
p345
S'4135'
p346
sS'E(b-v)hosterr'
p347
S'--'
p348
sS'v1 Fe II 5018 date'
p349
g342
sS'cfaRmaxerr'
p350
g342
sS'CfA RJD bootstrap'
p351
S'<0000000'
p352
sS'inclination from axes sdss'
p353
S'--'
p354
sS'my E(B-V)host from inclination'
p355
S'0.145724685356399'
p356
sS'RA'
p357
S'7:23:43'
p358
sS'cfaVmaxerr'
p359
g342
sS'Dm15 (with Lyman BC correction)'
p360
g3
sS'CfA E(B-V)host'
p361
g3
sS'lcvquality'
p362
S'3'
p363
sS'v1 Fe II 5169 '
p364
g342
sS'decdeg'
p365
S'33.4438888889'
p366
sS'cfaVmax'
p367
g342
sS'CfA VJD bootstrap error'
p368
S'--'
p369
sS'MaxVJD'
p370
S'<2452188.9'
p371
sS'D11Vmaxdate'
p372
g3
sS'v1 Fe II 5018 '
p373
g342
sS'D11Rmaxdate'
p374
g3
sS'D11Rmaxerr'
p375
g3
sS'Fe II 5169 at maximum (linear interpolation error)'
p376
S'#VALUE!'
p377
sS'D11Vmaxerr'
p378
g3
sS'axis ratio sdss'
p379
S'--'
p380
sS'D11Rmaxdateerr'
p381
g3
sS'v2 FeII 5018 date'
p382
g342
sS'DEC'
p383
S'+33:26:38.0'
p384
sS'Type'
p385
g337
sS'cfaJmaxerr'
p386
g342
sS'SNname'
p387
S'sn2001ej'
p388
sS'Fe II 5169 at maximum (linear interpolation)'
p389
g342
sS'inclination'
p390
S'--'
p391
sS'cfaHmaxerr'
p392
g342
sS'DFS E(B-V)'
p393
S'0.0535'
p394
sS'image subtraction needed'
p395
S'?'
p396
sS'CfA BJD bootstrap'
p397
S'<0000000'
p398
sS'v1 Fe II 5169 date'
p399
g342
sS' CfA E(B-V)hosterr'
p400
g3
sS'v2 Fe II 5018'
p401
g342
sS'P13 UV data'
p402
S'0'
p403
sS'cfaHmax'
p404
g342
sS'v2 Fe II 5169 error'
p405
g342
sS'CfA IJD bootstrap'
p406
S'<0000000'
p407
sS'cfaKmax'
p408
g342
sS'comment'
p409
S';NED: 4066.km/s'
p410
sS'dVJD CfA bootstrap'
p411
S'#VALUE!'
p412
sS'radeg'
p413
S'110.929166667'
p414
sS'distance Mpc'
p415
S'59.7495945143'
p416
sS'inclination error'
p417
S'--'
p418
sS'PAIRITEL'
p419
g403
sS'cfaImax'
p420
g342
sS'Fe II 5169 new'
p421
g3
sS'cfaBmaxerr'
p422
g342
sS'v2 Fe II 5018 error'
p423
g342
sS'E(b-v)host'
p424
S'--'
p425
sS'CfA photometric quality (1best, 3 worst)'
p426
g363
sS'inclination/E(B-V) ref'
p427
S'--'
p428
sS'cfaBmax'
p429
g342
sS'CfA IJD error'
p430
S'<0000000'
p431
sS'D11Vmaxdateerr'
p432
g3
sS'CfA dm15'
p433
S'-0.732'
p434
sS'Fe II 5018 at maximum (linear interpolation)'
p435
g342
sS'CfA BJD error'
p436
S'<0000000'
p437
sS'earliestV'
p438
S'2452188.938'
p439
sS'inclination from leida'
p440
S'--'
p441
sS'CfA dm15 linear'
p442
S'-0.428'
p443
sS'z'
p444
S'0.013793'
p445
sS'cfaImaxerr'
p446
g342
sS'cfaJmax'
p447
g342
sS'max_ref'
p448
S'CfA'
p449
sS'v2 Fe II 5169'
p450
g342
sS'FeII51691or2'
p451
S'#DIV/0!'
p452
sS'CfA VJD bootstrap'
p453
S'<2452188.93'
p454
sS'v1 Fe II 5018 error'
p455
g342
sS'MaxVdate'
p456
S'<20011006.4'
p457
sS'z_ref'
p458
S'SN'
p459
sS'D11Vmax'
p460
g3
sS'distanced11'
p461
S'--'
p462
sS'separation '
p463
g342
sS'hostgal'
p464
S'UGC3829'
p465
sS'E(B-V)'
p466
S'--'
p467
sS'inclination from axes'
p468
S'32.054385418143'
p469
sS'CfA RJD error'
p470
S'<0000000'
p471
sS'cfaKmaxerr'
p472
g342
sS'axis ratio'
p473
S'0.879545454545454'
p474
sS'MaxVMag'
p475
S'<17.2'
p476
sS'cfaRmax'
p477
g342
sS'v1 Fe II 5169 error'
p478
g342
sS'E(B-V) SF2011'
p479
S'0.046'
p480
sS'cfaUmax'
p481
g342
ssS'fnir'
p482
Nsg183
I00
sS'polysol'
p483
(dp484
g150
Nsg151
Nsg152
Nsg153
Nsg154
Nsg155
Nsg156
Nsg157
Nsg158
Nsg159
Nsg160
NssS'nir'
p485
I00
sS'maxmags'
p486
(dp487
g150
(dp488
g11
F0.0
sg60
Fnan
sg62
Fnan
ssg151
(dp489
g11
F0.0
sg60
Fnan
sg62
Fnan
ssg152
(dp490
g11
F0.0
sg60
Fnan
sg62
Fnan
ssg153
(dp491
g11
F0.0
sg60
Fnan
sg62
Fnan
ssg154
(dp492
g11
F0.0
sg60
Fnan
sg62
Fnan
ssg155
(dp493
g11
F0.0
sg60
Fnan
sg62
Fnan
ssg156
(dp494
g11
F0.0
sg60
Fnan
sg62
Fnan
ssg157
(dp495
g11
F0.0
sg60
Fnan
sg62
Fnan
ssg158
(dp496
g11
F0.0
sg60
Fnan
sg62
Fnan
ssg159
(dp497
g11
F0.0
sg60
Fnan
sg62
Fnan
ssg160
(dp498
g11
F0.0
sg60
Fnan
sg62
Fnan
sssS'snspline'
p499
(dp500
g150
Nsg151
Nsg152
Nsg153
Nsg154
Nsg155
Nsg156
Nsg157
Nsg158
Nsg159
Nsg160
NssS'pipeline'
p501
S'CfA3'
p502
sS'name'
p503
S'sn2001ej'
p504
sS'solution'
p505
(dp506
g150
(dp507
S'resid'
p508
NsS'pars'
p509
NsS'sol'
p510
NsS'deg'
p511
Nssg151
(dp512
g508
Nsg509
Nsg510
Nsg511
Nssg152
(dp513
g508
Nsg509
Nsg510
Nsg511
Nssg153
(dp514
g508
Nsg509
Nsg510
Nsg511
Nssg154
(dp515
g508
Nsg509
Nsg510
Nsg511
Nssg155
(dp516
g508
Nsg509
Nsg510
Nsg511
Nssg156
(dp517
g508
Nsg509
Nsg510
Nsg511
Nssg157
(dp518
g508
Nsg509
Nsg510
Nsg511
Nssg158
(dp519
g508
Nsg509
Nsg510
Nsg511
Nssg159
(dp520
g508
Nsg509
Nsg510
Nsg511
Nssg160
(dp521
g508
Nsg509
Nsg510
Nsg511
NsssS'su'
p522
(itemplutils
setupvars
p523
(dp524
S'photcodes'
p525
(dp526
g150
(S'02'
p527
S'07'
p528
tp529
sg151
(S'05'
p530
S'0a'
p531
tp532
sg152
(g152
g152
tp533
sg153
(g153
g153
tp534
sg154
(g154
g154
tp535
sg156
(S'04'
p536
S'09'
p537
tp538
sg159
(S'01'
p539
S'06'
p540
tp541
sg158
(S'03'
p542
S'08'
p543
tp544
sg155
(S'14'
p545
S'0c'
p546
tp547
sg160
(S'13'
p548
S'0b'
p549
tp550
sg157
(S'15'
p551
g551
tp552
ssS'mysymbols'
p553
(dp554
S'Ic-bl'
p555
S'v'
p556
sS'other'
p557
S'x'
p558
sS'IIb'
p559
S'^'
p560
sS'IIb-n'
p561
S'>'
p562
sS'Ic'
p563
S's'
p564
sS'Ib'
p565
S'o'
p566
ssS'bandsnonir'
p567
(lp568
g159
ag157
ag150
ag158
ag156
ag151
ag160
ag155
asS'ebmvcfa'
p569
(dp570
S'07gr'
p571
F0.0462
sS'09iz'
p572
F0.064
sS'04aw'
p573
F0.352
sS'06aj'
p574
F0.141
sS'07ag'
p575
F0.627
sS'02ap'
p576
F0.03
sS'05kl'
p577
F1.344
sS'08bo'
p578
F0.294
sS'06lv'
p579
F0.574
sS'05kz'
p580
F0.437
sS'06F'
p581
F0.533
sS'07uy'
p582
F0.378
sS'08D'
p583
F0.572
sS'05bf'
p584
F0.05
sS'09jf'
p585
F0.045
sS'06bf'
p586
F0.368
sS'06fo'
p587
F0.201
sS'05mf'
p588
F0.231
sS'06T'
p589
F0.397
sS'07ce'
p590
F0.082
sS'07ru'
p591
F0.01
sS'03jd'
p592
F0.1
sS'07cl'
p593
F0.258
sS'09er'
p594
F0.11
sS'06el'
p595
F0.147
sS'06ep'
p596
F0.448
sS'07kj'
p597
F0.295
sS'07C'
p598
F0.65
sS'05hg'
p599
F0.244
ssS'insts'
p600
(lp601
S'shooter'
p602
aS'kepler'
p603
aS'mini'
p604
asS'mycolors'
p605
(dp606
g150
S'#0066cc'
p607
sg151
S'm'
p608
sg152
S'#FFB700'
p609
sg153
S'#A4A4A4'
p610
sg154
S'#4F088A'
p611
sg156
S'#b20000'
p612
sg159
S'k'
p613
sg158
S'#47b56c'
p614
sg155
g608
sg160
g612
sg157
g613
ssS'bands'
p615
(lp616
g159
ag157
ag150
ag158
ag156
ag151
ag160
ag155
ag154
ag152
ag153
asS'mylines'
p617
(dp618
g555
S'dotted'
p619
sg557
S'solid'
p620
sg559
g620
sg561
g620
sg563
g620
sg565
S'dashed'
p621
ssS'mytypecolors'
p622
(dp623
g555
g160
sg557
g613
sg559
S'g'
p624
sg561
S'y'
p625
sg563
g296
sg565
g613
ssS'mycolorcolors'
p626
(dp627
g45
S'#9999EE'
p628
sg33
S'#0B0B3B'
p629
sg43
g612
sg8
S'SlateBlue'
p630
sg13
g628
sg15
g608
sg23
g614
sg21
g608
sg49
g629
sg35
S'#70B8FF'
p631
sg31
g629
sg47
g629
sg37
g607
sg39
S'#FFCC80'
p632
sg51
g613
sg53
S'purple'
p633
sg41
g632
sg17
g612
sg19
g614
ssS'AonEBmV'
p634
(dp635
S'm2'
p636
F4.3
sg150
F4.315
sS'w1'
p637
F4.3
sg151
F1.94
sg152
F0.576
sg153
F0.367
sg154
F0.902
sg155
F2.086
sg156
F2.673
sg159
F5.434
sS'w2'
p638
F4.3
sS'vv'
p639
F3.315
sg158
F3.315
sg157
F5.155
sS'uu'
p640
F5.155
sg160
F2.751
ssS'instcodes'
p641
(dp642
g604
I1
sg603
I0
sg602
I0
ssS'ebmvs'
p643
(dp644
S'04ge'
p645
F0.0754
sS'04gk'
p646
F0.0247
sS'07aw'
p647
F0.0338
sS'04gt'
p648
F0.0398
sS'06gi'
p649
F0.0205
sS'04gv'
p650
F0.0286
sS'04gq'
p651
F0.0627
sg575
F0.025
sg588
F0.0153
sS'97dq'
p652
F0.0382
sS'05ek'
p653
F0.1811
sS'05eo'
p654
F0.0585
sS'98fa'
p655
F0.0382
sS'01ej'
p656
F0.046
sS'93J'
p657
F0.069
sg587
F0.025
sS'05nb'
p658
F0.032
sS'06ir'
p659
F0.0393
sS'09K'
p660
F0.0491
sS'04ff'
p661
F0.0281
sS'04fe'
p662
F0.021
sS'04ao'
p663
F0.0893
sg573
F0.018
sg577
F0.0219
sg579
F0.0245
sS'06ck'
p664
F0.0245
sS'05kf'
p665
F0.0378
sS'07hb'
p666
F0.0518
sg580
F0.046
sS'06ld'
p667
F0.0144
sS'06lc'
p668
F0.0556
sS'05da'
p669
F0.2483
sS'08hh'
p670
F0.0427
sg589
F0.0647
sS'07iq'
p671
F0.1182
sg594
F0.0389
sS'97ef'
p672
F0.0366
sS'96cb'
p673
F0.0262
sg572
F0.0729
sS'05az'
p674
F0.0097
sS'06cb'
p675
F0.0094
sS'05ar'
p676
F0.0394
sg578
F0.0513
sS'07bg'
p677
F0.0179
sS'01ai'
p678
F0.0081
sS'06jc'
p679
F0.0173
sS'06ss'
p680
F0.0178
sg581
F0.1635
sg582
F0.0194
sg584
F0.0385
sS'02ji'
p681
F0.0217
sS'97X'
p682
F0.0237
sg585
F0.0971
sg586
F0.0216
sS'06ba'
p683
F0.0452
sS'08an'
p684
F0.045
sg590
F0.02
sg591
F0.2254
sg592
F0.0784
sg593
F0.037
sS'07rz'
p685
F0.1723
sg595
F0.0973
sg596
F0.031
sg597
F0.0691
sS'08ax'
p686
F0.0186
sS'05U'
p687
F0.0143
sS'07ke'
p688
F0.0954
sS'08aq'
p689
F0.0383
sg571
F0.0535
sS'05la'
p690
F0.01
sS'94I'
p691
F0.0302
sS'95bb'
p692
F0.0948
sg574
F0.1267
sg576
F0.062
sS'98dt'
p693
F0.0219
sS'04eu'
p694
F0.0466
sS'00H'
p695
F0.1964
sS'01gd'
p696
F0.0098
sS'04dn'
p697
F0.0415
sg583
F0.0194
sS'95F'
p698
F0.0311
sS'08cw'
p699
F0.006
sS'07D'
p700
F0.2881
sg598
F0.0363
sg599
F0.0901
sS'04dk'
p701
F0.1357
sS'07I'
p702
F0.025
ssS'ebmvhost'
p703
(dp704
g571
F0.038
sg576
F0.03
sg591
F0.01
sg592
F0.1
sg573
F0.352
sg686
F0.4
sg583
F0.5406
ssS'cs'
p705
(dp706
g8
I13
sg13
I8
sg15
I7
sg17
I3
sg19
I2
sg21
I6
sg23
I5
sg25
I16
sg27
I18
sg29
I17
sg31
I11
sg33
I19
sg35
I10
sg37
I1
sg39
I9
sg41
I14
sg43
I4
sg45
I9
sg47
I11
sg49
I15
sg51
I0
sg53
I12
ssS'bandsindex'
p707
(dp708
g150
I1
sg151
I4
sg152
I8
sg153
I9
sg154
I7
sg156
I3
sg159
I0
sg158
I2
sg155
I6
sg160
I5
sg157
I0
ssS'bandsnir'
p709
(lp710
g154
ag152
ag153
asS'myshapes'
p711
(dp712
g150
g564
sg151
g562
sg152
g564
sg153
g566
sg154
g560
sg156
g556
sg159
g560
sg158
g566
sg155
S'h'
p713
sg160
S'd'
p714
sg157
g560
ssS'types'
p715
(lp716
g565
ag563
ag559
ag555
ag561
asS'cbands'
p717
(lp718
g51
ag47
ag31
ag37
ag19
ag17
ag43
ag23
ag21
ag15
ag13
ag53
ag8
ag41
ag49
ag25
ag29
ag27
aS'H-i'
p719
aS'J-H'
p720
aS'K-J'
p721
asbsS'n'
p722
NsS'dr15'
p723
F0.0
sS'photometry'
p724
(dp725
g150
(dp726
g58
g293
(g294
(I0
tp727
g296
tp728
Rp729
(I1
(I0
tp730
g300
(S'f8'
p731
I0
I1
tp732
Rp733
(I3
S'<'
p734
NNNI-1
I-1
I0
tp735
bI00
g3
tp736
bsS'camsys'
p737
(lp738
g3
asS'natmag'
p739
g293
(g294
(I0
tp740
g296
tp741
Rp742
(I1
(I0
tp743
g733
I00
g3
tp744
bsg60
g293
(g294
(I0
tp745
g296
tp746
Rp747
(I1
(I0
tp748
g733
I00
g3
tp749
bsS'extmag'
p750
g293
(g294
(I0
tp751
g296
tp752
Rp753
(I1
(I0
tp754
g733
I00
g3
tp755
bsg62
g293
(g294
(I0
tp756
g296
tp757
Rp758
(I1
(I0
tp759
g733
I00
g3
tp760
bssg151
(dp761
g58
g293
(g294
(I0
tp762
g296
tp763
Rp764
(I1
(I0
tp765
g733
I00
g3
tp766
bsg737
(lp767
g3
asg739
g293
(g294
(I0
tp768
g296
tp769
Rp770
(I1
(I0
tp771
g733
I00
g3
tp772
bsg60
g293
(g294
(I0
tp773
g296
tp774
Rp775
(I1
(I0
tp776
g733
I00
g3
tp777
bsg750
g293
(g294
(I0
tp778
g296
tp779
Rp780
(I1
(I0
tp781
g733
I00
g3
tp782
bsg62
g293
(g294
(I0
tp783
g296
tp784
Rp785
(I1
(I0
tp786
g733
I00
g3
tp787
bssg152
(dp788
g58
g293
(g294
(I0
tp789
g296
tp790
Rp791
(I1
(I0
tp792
g733
I00
g3
tp793
bsg737
(lp794
g3
asg739
g293
(g294
(I0
tp795
g296
tp796
Rp797
(I1
(I0
tp798
g733
I00
g3
tp799
bsg60
g293
(g294
(I0
tp800
g296
tp801
Rp802
(I1
(I0
tp803
g733
I00
g3
tp804
bsg750
g293
(g294
(I0
tp805
g296
tp806
Rp807
(I1
(I0
tp808
g733
I00
g3
tp809
bsg62
g293
(g294
(I0
tp810
g296
tp811
Rp812
(I1
(I0
tp813
g733
I00
g3
tp814
bssg153
(dp815
g58
g293
(g294
(I0
tp816
g296
tp817
Rp818
(I1
(I0
tp819
g733
I00
g3
tp820
bsg737
(lp821
g3
asg739
g293
(g294
(I0
tp822
g296
tp823
Rp824
(I1
(I0
tp825
g733
I00
g3
tp826
bsg60
g293
(g294
(I0
tp827
g296
tp828
Rp829
(I1
(I0
tp830
g733
I00
g3
tp831
bsg750
g293
(g294
(I0
tp832
g296
tp833
Rp834
(I1
(I0
tp835
g733
I00
g3
tp836
bsg62
g293
(g294
(I0
tp837
g296
tp838
Rp839
(I1
(I0
tp840
g733
I00
g3
tp841
bssg154
(dp842
g58
g293
(g294
(I0
tp843
g296
tp844
Rp845
(I1
(I0
tp846
g733
I00
g3
tp847
bsg737
(lp848
g3
asg739
g293
(g294
(I0
tp849
g296
tp850
Rp851
(I1
(I0
tp852
g733
I00
g3
tp853
bsg60
g293
(g294
(I0
tp854
g296
tp855
Rp856
(I1
(I0
tp857
g733
I00
g3
tp858
bsg750
g293
(g294
(I0
tp859
g296
tp860
Rp861
(I1
(I0
tp862
g733
I00
g3
tp863
bsg62
g293
(g294
(I0
tp864
g296
tp865
Rp866
(I1
(I0
tp867
g733
I00
g3
tp868
bssg155
(dp869
g58
g293
(g294
(I0
tp870
g296
tp871
Rp872
(I1
(I0
tp873
g733
I00
g3
tp874
bsg737
(lp875
g3
asg739
g293
(g294
(I0
tp876
g296
tp877
Rp878
(I1
(I0
tp879
g733
I00
g3
tp880
bsg60
g293
(g294
(I0
tp881
g296
tp882
Rp883
(I1
(I0
tp884
g733
I00
g3
tp885
bsg750
g293
(g294
(I0
tp886
g296
tp887
Rp888
(I1
(I0
tp889
g733
I00
g3
tp890
bsg62
g293
(g294
(I0
tp891
g296
tp892
Rp893
(I1
(I0
tp894
g733
I00
g3
tp895
bssg156
(dp896
g58
g293
(g294
(I0
tp897
g296
tp898
Rp899
(I1
(I0
tp900
g733
I00
g3
tp901
bsg737
(lp902
g3
asg739
g293
(g294
(I0
tp903
g296
tp904
Rp905
(I1
(I0
tp906
g733
I00
g3
tp907
bsg60
g293
(g294
(I0
tp908
g296
tp909
Rp910
(I1
(I0
tp911
g733
I00
g3
tp912
bsg750
g293
(g294
(I0
tp913
g296
tp914
Rp915
(I1
(I0
tp916
g733
I00
g3
tp917
bsg62
g293
(g294
(I0
tp918
g296
tp919
Rp920
(I1
(I0
tp921
g733
I00
g3
tp922
bssg157
(dp923
g58
g293
(g294
(I0
tp924
g296
tp925
Rp926
(I1
(I0
tp927
g733
I00
g3
tp928
bsg737
(lp929
g3
asg739
g293
(g294
(I0
tp930
g296
tp931
Rp932
(I1
(I0
tp933
g733
I00
g3
tp934
bsg60
g293
(g294
(I0
tp935
g296
tp936
Rp937
(I1
(I0
tp938
g733
I00
g3
tp939
bsg750
g293
(g294
(I0
tp940
g296
tp941
Rp942
(I1
(I0
tp943
g733
I00
g3
tp944
bsg62
g293
(g294
(I0
tp945
g296
tp946
Rp947
(I1
(I0
tp948
g733
I00
g3
tp949
bssg158
(dp950
g58
g293
(g294
(I0
tp951
g296
tp952
Rp953
(I1
(I0
tp954
g733
I00
g3
tp955
bsg737
(lp956
g3
asg739
g293
(g294
(I0
tp957
g296
tp958
Rp959
(I1
(I0
tp960
g733
I00
g3
tp961
bsg60
g293
(g294
(I0
tp962
g296
tp963
Rp964
(I1
(I0
tp965
g733
I00
g3
tp966
bsg750
g293
(g294
(I0
tp967
g296
tp968
Rp969
(I1
(I0
tp970
g733
I00
g3
tp971
bsg62
g293
(g294
(I0
tp972
g296
tp973
Rp974
(I1
(I0
tp975
g733
I00
g3
tp976
bssg159
(dp977
g58
g293
(g294
(I0
tp978
g296
tp979
Rp980
(I1
(I0
tp981
g733
I00
g3
tp982
bsg737
(lp983
g3
asg739
g293
(g294
(I0
tp984
g296
tp985
Rp986
(I1
(I0
tp987
g733
I00
g3
tp988
bsg60
g293
(g294
(I0
tp989
g296
tp990
Rp991
(I1
(I0
tp992
g733
I00
g3
tp993
bsg750
g293
(g294
(I0
tp994
g296
tp995
Rp996
(I1
(I0
tp997
g733
I00
g3
tp998
bsg62
g293
(g294
(I0
tp999
g296
tp1000
Rp1001
(I1
(I0
tp1002
g733
I00
g3
tp1003
bssg160
(dp1004
g58
g293
(g294
(I0
tp1005
g296
tp1006
Rp1007
(I1
(I0
tp1008
g733
I00
g3
tp1009
bsg737
(lp1010
g3
asg739
g293
(g294
(I0
tp1011
g296
tp1012
Rp1013
(I1
(I0
tp1014
g733
I00
g3
tp1015
bsg60
g293
(g294
(I0
tp1016
g296
tp1017
Rp1018
(I1
(I0
tp1019
g733
I00
g3
tp1020
bsg750
g293
(g294
(I0
tp1021
g296
tp1022
Rp1023
(I1
(I0
tp1024
g733
I00
g3
tp1025
bsg62
g293
(g294
(I0
tp1026
g296
tp1027
Rp1028
(I1
(I0
tp1029
g733
I00
g3
tp1030
bsssb.