(isnclasses
mysn
p0
(dp1
S'camsystem'
p2
S''
p3
sS'dVmax'
p4
cnumpy.core.multiarray
scalar
p5
(cnumpy
dtype
p6
(S'f8'
p7
I0
I1
tp8
Rp9
(I3
S'<'
p10
NNNI-1
I-1
I0
tp11
bS'\xcd\x02t\xc8/\xf6\x08@'
p12
tp13
Rp14
sS'nomaxdate'
p15
I00
sS'maxcolors'
p16
(dp17
S'V-K'
p18
(dp19
S'color'
p20
Fnan
sS'epoch'
p21
F0.0
sS'dcolor'
p22
Fnan
ssS'V-H'
p23
(dp24
g20
Fnan
sg21
F0.0
sg22
Fnan
ssS'V-I'
p25
(dp26
g20
Fnan
sg21
F0.0
sg22
Fnan
ssS'R-I'
p27
(dp28
g20
Fnan
sg21
F0.0
sg22
Fnan
ssS'V-R'
p29
(dp30
g20
Fnan
sg21
F0.0
sg22
Fnan
ssS'V-i'
p31
(dp32
g20
Fnan
sg21
F0.0
sg22
Fnan
ssS'V-r'
p33
(dp34
g20
Fnan
sg21
F0.0
sg22
Fnan
ssS'B-J'
p35
(dp36
g20
Fnan
sg21
F0.0
sg22
Fnan
ssS'B-K'
p37
(dp38
g20
Fnan
sg21
F0.0
sg22
Fnan
ssS'B-H'
p39
(dp40
g20
Fnan
sg21
F0.0
sg22
Fnan
ssS'B-I'
p41
(dp42
g20
Fnan
sg21
F0.0
sg22
Fnan
ssS'B-R'
p43
(dp44
g20
Fnan
sg21
F0.0
sg22
Fnan
ssS'J-K'
p45
(dp46
g20
Fnan
sg21
F0.0
sg22
Fnan
ssS'B-V'
p47
(dp48
g20
Fnan
sg21
F0.0
sg22
Fnan
ssS'H-J'
p49
(dp50
g20
Fnan
sg21
F0.0
sg22
Fnan
ssS'H-K'
p51
(dp52
g20
Fnan
sg21
F0.0
sg22
Fnan
ssS'r-i'
p53
(dp54
g20
Fnan
sg21
F0.0
sg22
Fnan
ssS'I-H'
p55
(dp56
g20
Fnan
sg21
F0.0
sg22
Fnan
ssS'B-i'
p57
(dp58
g20
Fnan
sg21
F0.0
sg22
Fnan
ssS'B-r'
p59
(dp60
g20
Fnan
sg21
F0.0
sg22
Fnan
ssS'U-B'
p61
(dp62
g20
Fnan
sg21
F0.0
sg22
Fnan
ssS'r-K'
p63
(dp64
g20
Fnan
sg21
F0.0
sg22
Fnan
sssS'colors'
p65
(dp66
g18
(dp67
S'mjd'
p68
(lp69
sS'dmag'
p70
(lp71
sS'mag'
p72
(lp73
ssg23
(dp74
g68
(lp75
sg70
(lp76
sg72
(lp77
ssg25
(dp78
g68
(lp79
sg70
(lp80
sg72
(lp81
ssg27
(dp82
g68
(lp83
sg70
(lp84
sg72
(lp85
ssg29
(dp86
g68
(lp87
sg70
(lp88
sg72
(lp89
ssg31
(dp90
g68
(lp91
sg70
(lp92
sg72
(lp93
ssg33
(dp94
g68
(lp95
sg70
(lp96
sg72
(lp97
ssg35
(dp98
g68
(lp99
sg70
(lp100
sg72
(lp101
ssg37
(dp102
g68
(lp103
sg70
(lp104
sg72
(lp105
ssg39
(dp106
g68
(lp107
sg70
(lp108
sg72
(lp109
ssg41
(dp110
g68
(lp111
sg70
(lp112
sg72
(lp113
ssg43
(dp114
g68
(lp115
sg70
(lp116
sg72
(lp117
ssg45
(dp118
g68
(lp119
sg70
(lp120
sg72
(lp121
ssg47
(dp122
g68
(lp123
sg70
(lp124
sg72
(lp125
ssg49
(dp126
g68
(lp127
sg70
(lp128
sg72
(lp129
ssg51
(dp130
g68
(lp131
sg70
(lp132
sg72
(lp133
ssg53
(dp134
g68
(lp135
sg70
(lp136
sg72
(lp137
ssg55
(dp138
g68
(lp139
sg70
(lp140
sg72
(lp141
ssg57
(dp142
g68
(lp143
sg70
(lp144
sg72
(lp145
ssg59
(dp146
g68
(lp147
sg70
(lp148
sg72
(lp149
ssg61
(dp150
g68
(lp151
sg70
(lp152
sg72
(lp153
ssg63
(dp154
g68
(lp155
sg70
(lp156
sg72
(lp157
sssS'filters'
p158
(dp159
S'B'
p160
I0
sS'I'
p161
I0
sS'H'
p162
I0
sS'K'
p163
I0
sS'J'
p164
I0
sS'i'
p165
I0
sS'R'
p166
I0
sS'u'
p167
I0
sS'V'
p168
I0
sS'U'
p169
I0
sS'r'
p170
I0
ssS'snnameshort'
p171
S'07rz'
p172
sS'templsol'
p173
(dp174
g160
Nsg161
Nsg162
Nsg163
Nsg164
Nsg165
Nsg166
Nsg167
Nsg168
Nsg169
Nsg170
NssS'Vmaxmag'
p175
F0.0
sS'Vmaxflag'
p176
I00
sS'stats'
p177
(dp178
g160
(isnclasses
snstats
p179
(dp180
S'polyrchisq'
p181
F0.0
sS'Rdm15'
p182
F0.0
sS'tlim'
p183
(lp184
F0.0
aF0.0
asS'maglim'
p185
(lp186
F0.0
aF0.0
asS'templresid'
p187
NsS'polyresid'
p188
NsS'dm15'
p189
F0.0
sS'polydeg'
p190
F0.0
sS'success'
p191
I0
sS'flagmiss15'
p192
I0
sS'flagmissmax'
p193
I0
sS'm15data'
p194
(lp195
F0.0
aF0.0
asS'band'
p196
g3
sS'templrchisq'
p197
F0.0
sS'flagbadfit'
p198
I0
sS'Rdm15lin'
p199
(lp200
F0.0
aF0.0
asS'templatefit'
p201
(dp202
S'stretch'
p203
F1.0
sS'yoffset'
p204
F0.0
sS'xoffset'
p205
F0.0
sS'xstretch'
p206
F1.0
ssS'dm15lin'
p207
(lp208
F0.0
aF0.0
asS'maxjd'
p209
(lp210
F0.0
aF0.0
asS'norm'
p211
F0.0
sg203
F0.0
sbsg161
(isnclasses
snstats
p212
(dp213
g181
F0.0
sg182
F0.0
sg183
(lp214
F0.0
aF0.0
asg185
(lp215
F0.0
aF0.0
asg187
Nsg188
Nsg189
F0.0
sg190
F0.0
sg191
I0
sg192
I0
sg193
I0
sg194
(lp216
F0.0
aF0.0
asg196
g3
sg197
F0.0
sg198
I0
sg199
(lp217
F0.0
aF0.0
asg201
(dp218
g203
F1.0
sg204
F0.0
sg205
F0.0
sg206
F1.0
ssg207
(lp219
F0.0
aF0.0
asg209
(lp220
F0.0
aF0.0
asg211
F0.0
sg203
F0.0
sbsg162
(isnclasses
snstats
p221
(dp222
g181
F0.0
sg182
F0.0
sg183
(lp223
F0.0
aF0.0
asg185
(lp224
F0.0
aF0.0
asg187
Nsg188
Nsg189
F0.0
sg190
F0.0
sg191
I0
sg192
I0
sg193
I0
sg194
(lp225
F0.0
aF0.0
asg196
g3
sg197
F0.0
sg198
I0
sg199
(lp226
F0.0
aF0.0
asg201
(dp227
g203
F1.0
sg204
F0.0
sg205
F0.0
sg206
F1.0
ssg207
(lp228
F0.0
aF0.0
asg209
(lp229
F0.0
aF0.0
asg211
F0.0
sg203
F0.0
sbsg163
(isnclasses
snstats
p230
(dp231
g181
F0.0
sg182
F0.0
sg183
(lp232
F0.0
aF0.0
asg185
(lp233
F0.0
aF0.0
asg187
Nsg188
Nsg189
F0.0
sg190
F0.0
sg191
I0
sg192
I0
sg193
I0
sg194
(lp234
F0.0
aF0.0
asg196
g3
sg197
F0.0
sg198
I0
sg199
(lp235
F0.0
aF0.0
asg201
(dp236
g203
F1.0
sg204
F0.0
sg205
F0.0
sg206
F1.0
ssg207
(lp237
F0.0
aF0.0
asg209
(lp238
F0.0
aF0.0
asg211
F0.0
sg203
F0.0
sbsg164
(isnclasses
snstats
p239
(dp240
g181
F0.0
sg182
F0.0
sg183
(lp241
F0.0
aF0.0
asg185
(lp242
F0.0
aF0.0
asg187
Nsg188
Nsg189
F0.0
sg190
F0.0
sg191
I0
sg192
I0
sg193
I0
sg194
(lp243
F0.0
aF0.0
asg196
g3
sg197
F0.0
sg198
I0
sg199
(lp244
F0.0
aF0.0
asg201
(dp245
g203
F1.0
sg204
F0.0
sg205
F0.0
sg206
F1.0
ssg207
(lp246
F0.0
aF0.0
asg209
(lp247
F0.0
aF0.0
asg211
F0.0
sg203
F0.0
sbsg165
(isnclasses
snstats
p248
(dp249
g181
F0.0
sg182
F0.0
sg183
(lp250
F0.0
aF0.0
asg185
(lp251
F0.0
aF0.0
asg187
Nsg188
Nsg189
F0.0
sg190
F0.0
sg191
I0
sg192
I0
sg193
I0
sg194
(lp252
F0.0
aF0.0
asg196
g3
sg197
F0.0
sg198
I0
sg199
(lp253
F0.0
aF0.0
asg201
(dp254
g203
F1.0
sg204
F0.0
sg205
F0.0
sg206
F1.0
ssg207
(lp255
F0.0
aF0.0
asg209
(lp256
F0.0
aF0.0
asg211
F0.0
sg203
F0.0
sbsg166
(isnclasses
snstats
p257
(dp258
g181
F0.0
sg182
F0.0
sg183
(lp259
F0.0
aF0.0
asg185
(lp260
F0.0
aF0.0
asg187
Nsg188
Nsg189
F0.0
sg190
F0.0
sg191
I0
sg192
I0
sg193
I0
sg194
(lp261
F0.0
aF0.0
asg196
g3
sg197
F0.0
sg198
I0
sg199
(lp262
F0.0
aF0.0
asg201
(dp263
g203
F1.0
sg204
F0.0
sg205
F0.0
sg206
F1.0
ssg207
(lp264
F0.0
aF0.0
asg209
(lp265
F0.0
aF0.0
asg211
F0.0
sg203
F0.0
sbsg167
(isnclasses
snstats
p266
(dp267
g181
F0.0
sg182
F0.0
sg183
(lp268
F0.0
aF0.0
asg185
(lp269
F0.0
aF0.0
asg187
Nsg188
Nsg189
F0.0
sg190
F0.0
sg191
I0
sg192
I0
sg193
I0
sg194
(lp270
F0.0
aF0.0
asg196
g3
sg197
F0.0
sg198
I0
sg199
(lp271
F0.0
aF0.0
asg201
(dp272
g203
F1.0
sg204
F0.0
sg205
F0.0
sg206
F1.0
ssg207
(lp273
F0.0
aF0.0
asg209
(lp274
F0.0
aF0.0
asg211
F0.0
sg203
F0.0
sbsg168
(isnclasses
snstats
p275
(dp276
g181
F0.0
sg182
F0.0
sg183
(lp277
F0.0
aF0.0
asg185
(lp278
F0.0
aF0.0
asg187
Nsg188
Nsg189
F0.0
sg190
F0.0
sg191
I0
sg192
I0
sg193
I0
sg194
(lp279
F0.0
aF0.0
asg196
g3
sg197
F0.0
sg198
I0
sg199
(lp280
F0.0
aF0.0
asg201
(dp281
g203
F1.0
sg204
F0.0
sg205
F0.0
sg206
F1.0
ssg207
(lp282
F0.0
aF0.0
asg209
(lp283
F0.0
aF0.0
asg211
F0.0
sg203
F0.0
sbsg169
(isnclasses
snstats
p284
(dp285
g181
F0.0
sg182
F0.0
sg183
(lp286
F0.0
aF0.0
asg185
(lp287
F0.0
aF0.0
asg187
Nsg188
Nsg189
F0.0
sg190
F0.0
sg191
I0
sg192
I0
sg193
I0
sg194
(lp288
F0.0
aF0.0
asg196
g3
sg197
F0.0
sg198
I0
sg199
(lp289
F0.0
aF0.0
asg201
(dp290
g203
F1.0
sg204
F0.0
sg205
F0.0
sg206
F1.0
ssg207
(lp291
F0.0
aF0.0
asg209
(lp292
F0.0
aF0.0
asg211
F0.0
sg203
F0.0
sbsg170
(isnclasses
snstats
p293
(dp294
g181
F0.0
sg182
F0.0
sg183
(lp295
F0.0
aF0.0
asg185
(lp296
F0.0
aF0.0
asg187
Nsg188
Nsg189
F0.0
sg190
F0.0
sg191
I0
sg192
I0
sg193
I0
sg194
(lp297
F0.0
aF0.0
asg196
g3
sg197
F0.0
sg198
I0
sg199
(lp298
F0.0
aF0.0
asg201
(dp299
g203
F1.0
sg204
F0.0
sg205
F0.0
sg206
F1.0
ssg207
(lp300
F0.0
aF0.0
asg209
(lp301
F0.0
aF0.0
asg211
F0.0
sg203
F0.0
sbssS'lc'
p302
cnumpy.core.multiarray
_reconstruct
p303
(cnumpy
ndarray
p304
(I0
tp305
S'b'
p306
tp307
Rp308
(I1
(I42
tp309
g6
(S'V18'
p310
I0
I1
tp311
Rp312
(I3
S'|'
p313
N(S'photcode'
p314
S'mjd'
p315
S'mag'
p316
S'dmag'
p317
S'ccmag'
p318
tp319
(dp320
g315
(g6
(S'f4'
p321
I0
I1
tp322
Rp323
(I3
S'<'
p324
NNNI-1
I-1
I0
tp325
bI2
tp326
sg318
(g323
I14
tp327
sg316
(g323
I6
tp328
sg314
(g6
(S'S2'
p329
I0
I1
tp330
Rp331
(I3
S'|'
p332
NNNI2
I1
I0
tp333
bI0
tp334
sg317
(g323
I10
tp335
sI18
I1
I16
tp336
bI00
S'02J\xb6TG\x98\xee\x99A\x8d\x97.>,\xe5\x99A02@\xb7TG\x08\xac\x98A\xbct\x13>_\x87\x98A026\xbfTG\x81\x95\x9eA{\x14.>O\xaf\x9eA02K\xcdTG\xee|\xa5A\n\xd7c>\xca\xc3\xa5A02+\xd6TG\x17Y\x9eA\xb6\xf3=>\x8a0\x9eA02A\xe0TGF\xb6\xa4Am\xe7{>\x11\xc7\xa4A03I\xb6TG\xe9\xa6\x9aAD\x8b,>k\xab\x9aA03A\xb7TG\xe7{\x9bAX9\x94>\xed\x8d\x9bA034\xbfTG\xac\x9c\x9cA\xf8S\xe3=.\x90\x9cA03J\xcdTGb\x10\xa0Ash\x11>\x8e\xf5\x9fA03D\xceTGF6\x9fA\'1\x08>M\x15\x9fA03)\xcfTG}?\x9fA\x19\x04\x16>O\x1e\x9fA038\xd0TGB`\xa1AshQ>yi\xa1A03?\xe0TG\x8bl\xa3A1\x08\x8c>Zd\xa3A03"\xedTG\xdb\xf9\xa3A\x8f\xc2u>l\xf8\xa3A03"\xf8TG\xd9\xce\xa5A\xbaI\x8c>\xec\xd1\xa5A13H\xb6TG\xa8\xc6\x93A\xf4\xfdT=\xcd;\x94A13@\xb7TG5^\x91Am\xe7{=\xea\x15\x92A134\xbfTGj<\x96A\xf4\xfdT=_\x98\x96A13I\xcdTG#\xdb\x9bA}?\xb5=S\x05\x9cA13C\xceTG\xc5\xa0\x9bAX9\xb4=\x93\xba\x9bA13(\xcfTG%\x86\x9cA\xc9v\xbe=\x9d\x91\x9cA138\xd0TG)\xdc\x9bA\x1b/\xdd=}?\x9cA13)\xd6TGB`\x9cA)\\\x0f>z\xc7\x9cA13K\xd8TGZ\xe4\x9bA\xd9\xce7>\xb8\x1e\x9cA13?\xe0TG\x91\xed\x9fA\xf4\xfdT>\x84\x1e\xa0A13"\xedTG\xc5 \xa3AV\x0e->C-\xa3A13!\xf4TG\xc1\xca\xa0A\x12\x83\x80>\xa3\x12\xa1A13"\xf8TG\x8f\xc2\xa0A\xe5\xd0">_\x18\xa1A14H\xb6TG\x9c\xc4\x8eA\x02+\x07=b\x10\x8fA14@\xb7TG^\xba\x90A\x04V\x0e>\xb9\r\x91A143\xbfTG?5\x93A\xecQ8=\r`\x93A14I\xcdTGsh\x97A\xb8\x1e\x85=\x97\x7f\x97A14C\xceTG\xb6\xf3\x97A\xb8\x1e\x85=\x1c\xfc\x97A14\'\xcfTG\xbaI\x98A\xbct\x93=\xdfO\x98A147\xd0TG\xfa~\x98A\xe7\xfb\xa9=\xa5\xbd\x98A14(\xd6TG\xf4\xfd\x99A\x17\xd9\xce=\xe6?\x9aA14K\xd8TG\x98n\x98A\x8f\xc2\xf5=\xde\x93\x98A14>\xe0TG%\x06\x9eA7\x89A>\xb2\x1d\x9eA14!\xedTG\xb4\xc8\x9eAw\xbe\x1f>2\xe6\x9eA14!\xf4TG\x0c\x02\x9cA/\xdd$>\x8c9\x9cA14!\xf8TG\xbe\x9f\x9cA=\n\xd7=\xe8\xd9\x9cA'
p337
tp338
bsS'Rmax'
p339
(dp340
sS'polyfit'
p341
NsS'ebmvtot'
p342
F0.0
sS'Vmax'
p343
F2454456.515
sS'type'
p344
S'Ic'
p345
sS'metadata'
p346
(dp347
g3
S'0.595'
p348
sS'cfaUmaxerr'
p349
S'-'
p350
sS'v2 Fe II 5169 date'
p351
g350
sS'D11Rmax'
p352
g3
sS'v_z'
p353
S'3897'
p354
sS'E(b-v)hosterr'
p355
S'--'
p356
sS'v1 Fe II 5018 date'
p357
g350
sS'cfaRmaxerr'
p358
S'0.26'
p359
sS'CfA RJD bootstrap'
p360
S'54455.74'
p361
sS'inclination from axes sdss'
p362
S'53.8613801848768'
p363
sS'my E(B-V)host from inclination'
p364
S'0.202597838431464'
p365
sS'RA'
p366
S'4:31:10'
p367
sS'cfaVmaxerr'
p368
g350
sS'Dm15 (with Lyman BC correction)'
p369
g3
sS'CfA E(B-V)host'
p370
g3
sS'lcvquality'
p371
S'2'
p372
sS'v1 Fe II 5169 '
p373
g350
sS'decdeg'
p374
S'7.63097222222'
p375
sS'cfaVmax'
p376
g350
sS'CfA VJD bootstrap error'
p377
S'--'
p378
sS'MaxVJD'
p379
S'<2454454.8'
p380
sS'D11Vmaxdate'
p381
g3
sS'v1 Fe II 5018 '
p382
g350
sS'D11Rmaxdate'
p383
g3
sS'D11Rmaxerr'
p384
g3
sS'Fe II 5169 at maximum (linear interpolation error)'
p385
S'#VALUE!'
p386
sS'D11Vmaxerr'
p387
g3
sS'axis ratio sdss'
p388
S'0.65'
p389
sS'D11Rmaxdateerr'
p390
g3
sS'v2 FeII 5018 date'
p391
g350
sS'DEC'
p392
S'7:37:51'
p393
sS'Type'
p394
g345
sS'cfaJmaxerr'
p395
g350
sS'SNname'
p396
S'sn2007rz'
p397
sS'Fe II 5169 at maximum (linear interpolation)'
p398
g350
sS'inclination'
p399
S'--'
p400
sS'cfaHmaxerr'
p401
g350
sS'DFS E(B-V)'
p402
S'0.2003'
p403
sS'image subtraction needed'
p404
S'?'
p405
sS'CfA BJD bootstrap'
p406
S'54455.49'
p407
sS'v1 Fe II 5169 date'
p408
g350
sS' CfA E(B-V)hosterr'
p409
g3
sS'v2 Fe II 5018'
p410
g350
sS'P13 UV data'
p411
S'0'
p412
sS'cfaHmax'
p413
g3
sS'v2 Fe II 5169 error'
p414
g350
sS'CfA IJD bootstrap'
p415
S'<0000000'
p416
sS'cfaKmax'
p417
g350
sS'comment'
p418
S';galspec in details  2 spec'
p419
sS'dVJD CfA bootstrap'
p420
S'#VALUE!'
p421
sS'radeg'
p422
S'67.7916666667'
p423
sS'distance Mpc'
p424
S'56.2742430435'
p425
sS'inclination error'
p426
S'--'
p427
sS'PAIRITEL'
p428
g412
sS'cfaImax'
p429
g3
sS'Fe II 5169 new'
p430
g3
sS'cfaBmaxerr'
p431
S'0.17'
p432
sS'v2 Fe II 5018 error'
p433
g350
sS'E(b-v)host'
p434
S'--'
p435
sS'CfA photometric quality (1best, 3 worst)'
p436
g372
sS'inclination/E(B-V) ref'
p437
S'--'
p438
sS'cfaBmax'
p439
S'19.01'
p440
sS'CfA IJD error'
p441
S'<0000000'
p442
sS'D11Vmaxdateerr'
p443
g3
sS'CfA dm15'
p444
S'-0.373'
p445
sS'Fe II 5018 at maximum (linear interpolation)'
p446
g350
sS'CfA BJD error'
p447
S'1.61'
p448
sS'earliestV'
p449
S'2454454.781'
p450
sS'inclination from leida'
p451
S'27.9'
p452
sS'CfA dm15 linear'
p453
S'-0.429'
p454
sS'z'
p455
S'0.012998'
p456
sS'cfaImaxerr'
p457
g350
sS'cfaJmax'
p458
g3
sS'max_ref'
p459
S'CfA'
p460
sS'v2 Fe II 5169'
p461
g350
sS'FeII51691or2'
p462
S'#DIV/0!'
p463
sS'CfA VJD bootstrap'
p464
S'<2454454.79'
p465
sS'v1 Fe II 5018 error'
p466
g350
sS'MaxVdate'
p467
S'<<200'
p468
sS'z_ref'
p469
S'UZC'
p470
sS'D11Vmax'
p471
g3
sS'distanced11'
p472
S'--'
p473
sS'separation '
p474
g350
sS'hostgal'
p475
S'NGC1590'
p476
sS'E(B-V)'
p477
S'--'
p478
sS'inclination from axes'
p479
S'44.5645100010479'
p480
sS'CfA RJD error'
p481
S'1.94'
p482
sS'cfaKmaxerr'
p483
g350
sS'axis ratio'
p484
S'0.759897828863346'
p485
sS'MaxVMag'
p486
S'<18.5'
p487
sS'cfaRmax'
p488
S'18.23'
p489
sS'v1 Fe II 5169 error'
p490
g350
sS'E(B-V) SF2011'
p491
S'0.1723'
p492
sS'cfaUmax'
p493
g350
ssS'fnir'
p494
Nsg193
I00
sS'polysol'
p495
(dp496
g160
Nsg161
Nsg162
Nsg163
Nsg164
Nsg165
Nsg166
Nsg167
Nsg168
Nsg169
Nsg170
NssS'nir'
p497
I00
sS'maxmags'
p498
(dp499
g160
(dp500
g21
F0.0
sg70
Fnan
sg72
Fnan
ssg161
(dp501
g21
F0.0
sg70
Fnan
sg72
Fnan
ssg162
(dp502
g21
F0.0
sg70
Fnan
sg72
Fnan
ssg163
(dp503
g21
F0.0
sg70
Fnan
sg72
Fnan
ssg164
(dp504
g21
F0.0
sg70
Fnan
sg72
Fnan
ssg165
(dp505
g21
F0.0
sg70
Fnan
sg72
Fnan
ssg166
(dp506
g21
F0.0
sg70
Fnan
sg72
Fnan
ssg167
(dp507
g21
F0.0
sg70
Fnan
sg72
Fnan
ssg168
(dp508
g21
F0.0
sg70
Fnan
sg72
Fnan
ssg169
(dp509
g21
F0.0
sg70
Fnan
sg72
Fnan
ssg170
(dp510
g21
F0.0
sg70
Fnan
sg72
Fnan
sssS'snspline'
p511
(dp512
g160
Nsg161
Nsg162
Nsg163
Nsg164
Nsg165
Nsg166
Nsg167
Nsg168
Nsg169
Nsg170
NssS'pipeline'
p513
S'CfA4'
p514
sS'name'
p515
S'sn2007rz'
p516
sS'solution'
p517
(dp518
g160
(dp519
S'resid'
p520
NsS'pars'
p521
NsS'sol'
p522
NsS'deg'
p523
Nssg161
(dp524
g520
Nsg521
Nsg522
Nsg523
Nssg162
(dp525
g520
Nsg521
Nsg522
Nsg523
Nssg163
(dp526
g520
Nsg521
Nsg522
Nsg523
Nssg164
(dp527
g520
Nsg521
Nsg522
Nsg523
Nssg165
(dp528
g520
Nsg521
Nsg522
Nsg523
Nssg166
(dp529
g520
Nsg521
Nsg522
Nsg523
Nssg167
(dp530
g520
Nsg521
Nsg522
Nsg523
Nssg168
(dp531
g520
Nsg521
Nsg522
Nsg523
Nssg169
(dp532
g520
Nsg521
Nsg522
Nsg523
Nssg170
(dp533
g520
Nsg521
Nsg522
Nsg523
NsssS'su'
p534
(itemplutils
setupvars
p535
(dp536
S'photcodes'
p537
(dp538
g160
(S'02'
p539
S'07'
p540
tp541
sg161
(S'05'
p542
S'0a'
p543
tp544
sg162
(g162
g162
tp545
sg163
(g163
g163
tp546
sg164
(g164
g164
tp547
sg166
(S'04'
p548
S'09'
p549
tp550
sg169
(S'01'
p551
S'06'
p552
tp553
sg168
(S'03'
p554
S'08'
p555
tp556
sg165
(S'14'
p557
S'0c'
p558
tp559
sg170
(S'13'
p560
S'0b'
p561
tp562
sg167
(S'15'
p563
g563
tp564
ssS'mysymbols'
p565
(dp566
S'Ic-bl'
p567
S'v'
p568
sS'other'
p569
S'x'
p570
sS'IIb'
p571
S'^'
p572
sS'IIb-n'
p573
S'>'
p574
sS'Ic'
p575
S's'
p576
sS'Ib'
p577
S'o'
p578
ssS'bandsnonir'
p579
(lp580
g169
ag167
ag160
ag168
ag166
ag161
ag170
ag165
asS'ebmvcfa'
p581
(dp582
S'07gr'
p583
F0.0462
sS'09iz'
p584
F0.064
sS'04aw'
p585
F0.352
sS'06aj'
p586
F0.141
sS'07ag'
p587
F0.627
sS'02ap'
p588
F0.03
sS'05kl'
p589
F1.344
sS'08bo'
p590
F0.294
sS'06lv'
p591
F0.574
sS'05kz'
p592
F0.437
sS'06F'
p593
F0.533
sS'07uy'
p594
F0.378
sS'08D'
p595
F0.572
sS'05bf'
p596
F0.05
sS'09jf'
p597
F0.045
sS'06bf'
p598
F0.368
sS'06fo'
p599
F0.201
sS'05mf'
p600
F0.231
sS'06T'
p601
F0.397
sS'07ce'
p602
F0.082
sS'07ru'
p603
F0.01
sS'03jd'
p604
F0.1
sS'07cl'
p605
F0.258
sS'09er'
p606
F0.11
sS'06el'
p607
F0.147
sS'06ep'
p608
F0.448
sS'07kj'
p609
F0.295
sS'07C'
p610
F0.65
sS'05hg'
p611
F0.244
ssS'insts'
p612
(lp613
S'shooter'
p614
aS'kepler'
p615
aS'mini'
p616
asS'mycolors'
p617
(dp618
g160
S'#0066cc'
p619
sg161
S'm'
p620
sg162
S'#FFB700'
p621
sg163
S'#A4A4A4'
p622
sg164
S'#4F088A'
p623
sg166
S'#b20000'
p624
sg169
S'k'
p625
sg168
S'#47b56c'
p626
sg165
g620
sg170
g624
sg167
g625
ssS'bands'
p627
(lp628
g169
ag167
ag160
ag168
ag166
ag161
ag170
ag165
ag164
ag162
ag163
asS'mylines'
p629
(dp630
g567
S'dotted'
p631
sg569
S'solid'
p632
sg571
g632
sg573
g632
sg575
g632
sg577
S'dashed'
p633
ssS'mytypecolors'
p634
(dp635
g567
g170
sg569
g625
sg571
S'g'
p636
sg573
S'y'
p637
sg575
g306
sg577
g625
ssS'mycolorcolors'
p638
(dp639
g55
S'#9999EE'
p640
sg43
S'#0B0B3B'
p641
sg53
g624
sg18
S'SlateBlue'
p642
sg23
g640
sg25
g620
sg33
g626
sg31
g620
sg59
g641
sg45
S'#70B8FF'
p643
sg41
g641
sg57
g641
sg47
g619
sg49
S'#FFCC80'
p644
sg61
g625
sg63
S'purple'
p645
sg51
g644
sg27
g624
sg29
g626
ssS'AonEBmV'
p646
(dp647
S'm2'
p648
F4.3
sg160
F4.315
sS'w1'
p649
F4.3
sg161
F1.94
sg162
F0.576
sg163
F0.367
sg164
F0.902
sg165
F2.086
sg166
F2.673
sg169
F5.434
sS'w2'
p650
F4.3
sS'vv'
p651
F3.315
sg168
F3.315
sg167
F5.155
sS'uu'
p652
F5.155
sg170
F2.751
ssS'instcodes'
p653
(dp654
g616
I1
sg615
I0
sg614
I0
ssS'ebmvs'
p655
(dp656
S'04ge'
p657
F0.0754
sS'04gk'
p658
F0.0247
sS'07aw'
p659
F0.0338
sS'04gt'
p660
F0.0398
sS'06gi'
p661
F0.0205
sS'04gv'
p662
F0.0286
sS'04gq'
p663
F0.0627
sg587
F0.025
sg600
F0.0153
sS'97dq'
p664
F0.0382
sS'05ek'
p665
F0.1811
sS'05eo'
p666
F0.0585
sS'98fa'
p667
F0.0382
sS'01ej'
p668
F0.046
sS'93J'
p669
F0.069
sg599
F0.025
sS'05nb'
p670
F0.032
sS'06ir'
p671
F0.0393
sS'09K'
p672
F0.0491
sS'04ff'
p673
F0.0281
sS'04fe'
p674
F0.021
sS'04ao'
p675
F0.0893
sg585
F0.018
sg589
F0.0219
sg591
F0.0245
sS'06ck'
p676
F0.0245
sS'05kf'
p677
F0.0378
sS'07hb'
p678
F0.0518
sg592
F0.046
sS'06ld'
p679
F0.0144
sS'06lc'
p680
F0.0556
sS'05da'
p681
F0.2483
sS'08hh'
p682
F0.0427
sg601
F0.0647
sS'07iq'
p683
F0.1182
sg606
F0.0389
sS'97ef'
p684
F0.0366
sS'96cb'
p685
F0.0262
sg584
F0.0729
sS'05az'
p686
F0.0097
sS'06cb'
p687
F0.0094
sS'05ar'
p688
F0.0394
sg590
F0.0513
sS'07bg'
p689
F0.0179
sS'01ai'
p690
F0.0081
sS'06jc'
p691
F0.0173
sS'06ss'
p692
F0.0178
sg593
F0.1635
sg594
F0.0194
sg596
F0.0385
sS'02ji'
p693
F0.0217
sS'97X'
p694
F0.0237
sg597
F0.0971
sg598
F0.0216
sS'06ba'
p695
F0.0452
sS'08an'
p696
F0.045
sg602
F0.02
sg603
F0.2254
sg604
F0.0784
sg605
F0.037
sS'07rz'
p697
F0.1723
sg607
F0.0973
sg608
F0.031
sg609
F0.0691
sS'08ax'
p698
F0.0186
sS'05U'
p699
F0.0143
sS'07ke'
p700
F0.0954
sS'08aq'
p701
F0.0383
sg583
F0.0535
sS'05la'
p702
F0.01
sS'94I'
p703
F0.0302
sS'95bb'
p704
F0.0948
sg586
F0.1267
sg588
F0.062
sS'98dt'
p705
F0.0219
sS'04eu'
p706
F0.0466
sS'00H'
p707
F0.1964
sS'01gd'
p708
F0.0098
sS'04dn'
p709
F0.0415
sg595
F0.0194
sS'95F'
p710
F0.0311
sS'08cw'
p711
F0.006
sS'07D'
p712
F0.2881
sg610
F0.0363
sg611
F0.0901
sS'04dk'
p713
F0.1357
sS'07I'
p714
F0.025
ssS'ebmvhost'
p715
(dp716
g583
F0.038
sg588
F0.03
sg603
F0.01
sg604
F0.1
sg585
F0.352
sg698
F0.4
sg595
F0.5406
ssS'cs'
p717
(dp718
g18
I13
sg23
I8
sg25
I7
sg27
I3
sg29
I2
sg31
I6
sg33
I5
sg35
I16
sg37
I18
sg39
I17
sg41
I11
sg43
I19
sg45
I10
sg47
I1
sg49
I9
sg51
I14
sg53
I4
sg55
I9
sg57
I11
sg59
I15
sg61
I0
sg63
I12
ssS'bandsindex'
p719
(dp720
g160
I1
sg161
I4
sg162
I8
sg163
I9
sg164
I7
sg166
I3
sg169
I0
sg168
I2
sg165
I6
sg170
I5
sg167
I0
ssS'bandsnir'
p721
(lp722
g164
ag162
ag163
asS'myshapes'
p723
(dp724
g160
g576
sg161
g574
sg162
g576
sg163
g578
sg164
g572
sg166
g568
sg169
g572
sg168
g578
sg165
S'h'
p725
sg170
S'd'
p726
sg167
g572
ssS'types'
p727
(lp728
g577
ag575
ag571
ag567
ag573
asS'cbands'
p729
(lp730
g61
ag57
ag41
ag47
ag29
ag27
ag53
ag33
ag31
ag25
ag23
ag63
ag18
ag51
ag59
ag35
ag39
ag37
aS'H-i'
p731
aS'J-H'
p732
aS'K-J'
p733
asbsS'n'
p734
NsS'dr15'
p735
F0.0
sS'photometry'
p736
(dp737
g160
(dp738
g68
g303
(g304
(I0
tp739
g306
tp740
Rp741
(I1
(I0
tp742
g9
I00
g3
tp743
bsS'camsys'
p744
(lp745
g3
asS'natmag'
p746
g303
(g304
(I0
tp747
g306
tp748
Rp749
(I1
(I0
tp750
g9
I00
g3
tp751
bsg70
g303
(g304
(I0
tp752
g306
tp753
Rp754
(I1
(I0
tp755
g9
I00
g3
tp756
bsS'extmag'
p757
g303
(g304
(I0
tp758
g306
tp759
Rp760
(I1
(I0
tp761
g9
I00
g3
tp762
bsg72
g303
(g304
(I0
tp763
g306
tp764
Rp765
(I1
(I0
tp766
g9
I00
g3
tp767
bssg161
(dp768
g68
g303
(g304
(I0
tp769
g306
tp770
Rp771
(I1
(I0
tp772
g9
I00
g3
tp773
bsg744
(lp774
g3
asg746
g303
(g304
(I0
tp775
g306
tp776
Rp777
(I1
(I0
tp778
g9
I00
g3
tp779
bsg70
g303
(g304
(I0
tp780
g306
tp781
Rp782
(I1
(I0
tp783
g9
I00
g3
tp784
bsg757
g303
(g304
(I0
tp785
g306
tp786
Rp787
(I1
(I0
tp788
g9
I00
g3
tp789
bsg72
g303
(g304
(I0
tp790
g306
tp791
Rp792
(I1
(I0
tp793
g9
I00
g3
tp794
bssg162
(dp795
g68
g303
(g304
(I0
tp796
g306
tp797
Rp798
(I1
(I0
tp799
g9
I00
g3
tp800
bsg744
(lp801
g3
asg746
g303
(g304
(I0
tp802
g306
tp803
Rp804
(I1
(I0
tp805
g9
I00
g3
tp806
bsg70
g303
(g304
(I0
tp807
g306
tp808
Rp809
(I1
(I0
tp810
g9
I00
g3
tp811
bsg757
g303
(g304
(I0
tp812
g306
tp813
Rp814
(I1
(I0
tp815
g9
I00
g3
tp816
bsg72
g303
(g304
(I0
tp817
g306
tp818
Rp819
(I1
(I0
tp820
g9
I00
g3
tp821
bssg163
(dp822
g68
g303
(g304
(I0
tp823
g306
tp824
Rp825
(I1
(I0
tp826
g9
I00
g3
tp827
bsg744
(lp828
g3
asg746
g303
(g304
(I0
tp829
g306
tp830
Rp831
(I1
(I0
tp832
g9
I00
g3
tp833
bsg70
g303
(g304
(I0
tp834
g306
tp835
Rp836
(I1
(I0
tp837
g9
I00
g3
tp838
bsg757
g303
(g304
(I0
tp839
g306
tp840
Rp841
(I1
(I0
tp842
g9
I00
g3
tp843
bsg72
g303
(g304
(I0
tp844
g306
tp845
Rp846
(I1
(I0
tp847
g9
I00
g3
tp848
bssg164
(dp849
g68
g303
(g304
(I0
tp850
g306
tp851
Rp852
(I1
(I0
tp853
g9
I00
g3
tp854
bsg744
(lp855
g3
asg746
g303
(g304
(I0
tp856
g306
tp857
Rp858
(I1
(I0
tp859
g9
I00
g3
tp860
bsg70
g303
(g304
(I0
tp861
g306
tp862
Rp863
(I1
(I0
tp864
g9
I00
g3
tp865
bsg757
g303
(g304
(I0
tp866
g306
tp867
Rp868
(I1
(I0
tp869
g9
I00
g3
tp870
bsg72
g303
(g304
(I0
tp871
g306
tp872
Rp873
(I1
(I0
tp874
g9
I00
g3
tp875
bssg165
(dp876
g68
g303
(g304
(I0
tp877
g306
tp878
Rp879
(I1
(I0
tp880
g9
I00
g3
tp881
bsg744
(lp882
g3
asg746
g303
(g304
(I0
tp883
g306
tp884
Rp885
(I1
(I0
tp886
g9
I00
g3
tp887
bsg70
g303
(g304
(I0
tp888
g306
tp889
Rp890
(I1
(I0
tp891
g9
I00
g3
tp892
bsg757
g303
(g304
(I0
tp893
g306
tp894
Rp895
(I1
(I0
tp896
g9
I00
g3
tp897
bsg72
g303
(g304
(I0
tp898
g306
tp899
Rp900
(I1
(I0
tp901
g9
I00
g3
tp902
bssg166
(dp903
g68
g303
(g304
(I0
tp904
g306
tp905
Rp906
(I1
(I0
tp907
g9
I00
g3
tp908
bsg744
(lp909
g3
asg746
g303
(g304
(I0
tp910
g306
tp911
Rp912
(I1
(I0
tp913
g9
I00
g3
tp914
bsg70
g303
(g304
(I0
tp915
g306
tp916
Rp917
(I1
(I0
tp918
g9
I00
g3
tp919
bsg757
g303
(g304
(I0
tp920
g306
tp921
Rp922
(I1
(I0
tp923
g9
I00
g3
tp924
bsg72
g303
(g304
(I0
tp925
g306
tp926
Rp927
(I1
(I0
tp928
g9
I00
g3
tp929
bssg167
(dp930
g68
g303
(g304
(I0
tp931
g306
tp932
Rp933
(I1
(I0
tp934
g9
I00
g3
tp935
bsg744
(lp936
g3
asg746
g303
(g304
(I0
tp937
g306
tp938
Rp939
(I1
(I0
tp940
g9
I00
g3
tp941
bsg70
g303
(g304
(I0
tp942
g306
tp943
Rp944
(I1
(I0
tp945
g9
I00
g3
tp946
bsg757
g303
(g304
(I0
tp947
g306
tp948
Rp949
(I1
(I0
tp950
g9
I00
g3
tp951
bsg72
g303
(g304
(I0
tp952
g306
tp953
Rp954
(I1
(I0
tp955
g9
I00
g3
tp956
bssg168
(dp957
g68
g303
(g304
(I0
tp958
g306
tp959
Rp960
(I1
(I0
tp961
g9
I00
g3
tp962
bsg744
(lp963
g3
asg746
g303
(g304
(I0
tp964
g306
tp965
Rp966
(I1
(I0
tp967
g9
I00
g3
tp968
bsg70
g303
(g304
(I0
tp969
g306
tp970
Rp971
(I1
(I0
tp972
g9
I00
g3
tp973
bsg757
g303
(g304
(I0
tp974
g306
tp975
Rp976
(I1
(I0
tp977
g9
I00
g3
tp978
bsg72
g303
(g304
(I0
tp979
g306
tp980
Rp981
(I1
(I0
tp982
g9
I00
g3
tp983
bssg169
(dp984
g68
g303
(g304
(I0
tp985
g306
tp986
Rp987
(I1
(I0
tp988
g9
I00
g3
tp989
bsg744
(lp990
g3
asg746
g303
(g304
(I0
tp991
g306
tp992
Rp993
(I1
(I0
tp994
g9
I00
g3
tp995
bsg70
g303
(g304
(I0
tp996
g306
tp997
Rp998
(I1
(I0
tp999
g9
I00
g3
tp1000
bsg757
g303
(g304
(I0
tp1001
g306
tp1002
Rp1003
(I1
(I0
tp1004
g9
I00
g3
tp1005
bsg72
g303
(g304
(I0
tp1006
g306
tp1007
Rp1008
(I1
(I0
tp1009
g9
I00
g3
tp1010
bssg170
(dp1011
g68
g303
(g304
(I0
tp1012
g306
tp1013
Rp1014
(I1
(I0
tp1015
g9
I00
g3
tp1016
bsg744
(lp1017
g3
asg746
g303
(g304
(I0
tp1018
g306
tp1019
Rp1020
(I1
(I0
tp1021
g9
I00
g3
tp1022
bsg70
g303
(g304
(I0
tp1023
g306
tp1024
Rp1025
(I1
(I0
tp1026
g9
I00
g3
tp1027
bsg757
g303
(g304
(I0
tp1028
g306
tp1029
Rp1030
(I1
(I0
tp1031
g9
I00
g3
tp1032
bsg72
g303
(g304
(I0
tp1033
g306
tp1034
Rp1035
(I1
(I0
tp1036
g9
I00
g3
tp1037
bsssb.