(isnclasses
mysn
p0
(dp1
S'camsystem'
p2
S''
p3
sS'dVmax'
p4
F0.51
sS'nomaxdate'
p5
I00
sS'maxcolors'
p6
(dp7
S'V-K'
p8
(dp9
S'color'
p10
Fnan
sS'epoch'
p11
F0.0
sS'dcolor'
p12
Fnan
ssS'V-H'
p13
(dp14
g10
Fnan
sg11
F0.0
sg12
Fnan
ssS'V-I'
p15
(dp16
g10
Fnan
sg11
F0.0
sg12
Fnan
ssS'R-I'
p17
(dp18
g10
Fnan
sg11
F0.0
sg12
Fnan
ssS'V-R'
p19
(dp20
g10
Fnan
sg11
F0.0
sg12
Fnan
ssS'V-i'
p21
(dp22
g10
Fnan
sg11
F0.0
sg12
Fnan
ssS'V-r'
p23
(dp24
g10
Fnan
sg11
F0.0
sg12
Fnan
ssS'B-J'
p25
(dp26
g10
Fnan
sg11
F0.0
sg12
Fnan
ssS'B-K'
p27
(dp28
g10
Fnan
sg11
F0.0
sg12
Fnan
ssS'B-H'
p29
(dp30
g10
Fnan
sg11
F0.0
sg12
Fnan
ssS'B-I'
p31
(dp32
g10
Fnan
sg11
F0.0
sg12
Fnan
ssS'B-R'
p33
(dp34
g10
Fnan
sg11
F0.0
sg12
Fnan
ssS'J-K'
p35
(dp36
g10
Fnan
sg11
F0.0
sg12
Fnan
ssS'B-V'
p37
(dp38
g10
Fnan
sg11
F0.0
sg12
Fnan
ssS'H-J'
p39
(dp40
g10
Fnan
sg11
F0.0
sg12
Fnan
ssS'H-K'
p41
(dp42
g10
Fnan
sg11
F0.0
sg12
Fnan
ssS'r-i'
p43
(dp44
g10
Fnan
sg11
F0.0
sg12
Fnan
ssS'I-H'
p45
(dp46
g10
Fnan
sg11
F0.0
sg12
Fnan
ssS'B-i'
p47
(dp48
g10
Fnan
sg11
F0.0
sg12
Fnan
ssS'B-r'
p49
(dp50
g10
Fnan
sg11
F0.0
sg12
Fnan
ssS'U-B'
p51
(dp52
g10
Fnan
sg11
F0.0
sg12
Fnan
ssS'r-K'
p53
(dp54
g10
Fnan
sg11
F0.0
sg12
Fnan
sssS'nirlc'
p55
cnumpy.core.multiarray
_reconstruct
p56
(cnumpy
ndarray
p57
(I0
tp58
S'b'
p59
tp60
Rp61
(I1
(I107
tp62
cnumpy
dtype
p63
(S'V13'
p64
I0
I1
tp65
Rp66
(I3
S'|'
p67
N(S'photcode'
p68
S'mjd'
p69
S'mag'
p70
S'dmag'
p71
tp72
(dp73
g69
(g63
(S'f4'
p74
I0
I1
tp75
Rp76
(I3
S'<'
p77
NNNI-1
I-1
I0
tp78
bI1
tp79
sg70
(g76
I5
tp80
sg68
(g63
(S'S1'
p81
I0
I1
tp82
Rp83
(I3
S'|'
p84
NNNI1
I1
I0
tp85
bI0
tp86
sg71
(g76
I9
tp87
sI13
I1
I16
tp88
bI00
S'JvcSG\xd7\xa3lA\xbct\x13<JneSG\xb8\x1ekA\x8f\xc2u<J\x85nSG\xc9vjA333>J\x80pSGw\xbekA\xc5 0=J\x8d\x83SG\xf8SyA\xc5 \xb0=J\x88\x84SG\x1dZzA1\x08\xac<JZ\x88SGB`{Ao\x12\x83<Jd\x89SG\x85\xeb{A\x00\x00\x80>J{\x8aSG\x1dZ|AX94<Jn\x8bSG\x00\x00~A333>Jn\x8dSG\xdfO\x7fA1\x08,=J\\\x8eSG\xdfO\x7fAB`e<J\\\x90SG\xdb\xf9~A\xbct\x93=Jn\x91SG\xb0r~A\x02+\x87=Jl\x92SG\x10X\x80A\xc1\xca\xa1=J_\x98SG\xa2E\x82A\n\xd7\xa3<JR\x99SG\'1\x82A333>JZ\x9aSG\xf0\xa7\x82A1\x08\xac<JW\x9bSG\x85\xeb\x82AB`e=Jd\x9cSGj\xbc\x82A1\x08\xac<JR\x9dSG5^\x83AL7\x89=JW\x9eSGm\xe7\x83A\x8f\xc2\xf5<JO\xa0SG\x1f\x85\x84A\xcd\xcc\xcc<JM\xa1SGF\xb6\x84A333>JJ\xa3SG\xe5\xd0\x84A333>JT\xaeSG\'1\x87A333>JJ\xafSG\x87\x16\x87A\x00\x00\x80>JM\xb5SGR\xb8\x88A333>JM\xb6SG\x0c\x02\x88A\n\xd7#=JE\xbcSG\x89A\x89A333>JC\xbeSGB`\x89A\x87\x16Y=J=\xc0SG\x81\x95\x8bA333>J;\xc8SGX9\x8cA\x00\x00\x80>JT\xc9SG33\x8dA{\x14\xae=J=\xcaSG`\xe5\x8eA333>J@\xceSG\xecQ\x8cA333>J@\xcfSG\x19\x04\x8eA1\x08,>HvcSG\x0c\x02mA333>HneSG\x85\xebiA)\\\x8f=H\x85nSG\x8d\x97jA\x1b/]=H\x80pSG\x91\xedhA\x8f\xc2u<Hi{SG=\noA9\xb4H=H\x8d\x83SG\xdfOsA\x06\x81\x15>H\x88\x84SGb\x10rA333>HZ\x88SG\xe1ztA)\\\x0f=Hd\x89SG\xe5\xd0vA!\xb0r>H{\x8aSG\x98nvA\xbct\x13=Hn\x8bSG\xc5 xA\xecQ8=Hn\x8dSG\xd3MvA333>H\\\x8eSG\xf4\xfdvA\x9e\xef\'=H\\\x90SG\x0e-vA333>Hn\x91SGy\xe9xA333>Hl\x92SG\xcf\xf7{A333>HW\x93SGNbvA333>H_\x98SG\xe3\xa5yA+\x87\x16>HR\x99SG\xa4pyA\x00\x00\x80>HZ\x9aSG\xfe\xd4|A\x1b/]=HW\x9bSG\x91\xed|A\xbct\x93=Hd\x9cSGff|A\xcf\xf7\x93>HR\x9dSGd;}Ao\x12\x03>HW\x9eSG\xa8\xc6\x7fA%\x06\x81=HO\xa0SGb\x10\x80A\x17\xd9\xce=HM\xa1SG\xfa~\x80A333>HJ\xa3SG\xbaI\x80A\xc5 \xb0=HT\xaeSG\x87\x16\x84A333>HJ\xafSG\xd5x\x82A\x9e\xef\'=HM\xb5SG\x08\xac\x84A\x00\x00\x80>HM\xb6SG\xee|\x84A\xa2E\xb6=HE\xbcSG\xdfO\x86A\x00\x00\x80>HC\xbeSGR\xb8\x86A\xa2E6>H;\xc8SG9\xb4\x89A`\xe5P>HT\xc9SG\xd7\xa3\x87A333>H=\xcaSG\xfa~\x8aAb\x10\x98>H@\xcfSG\x96C\x8aA333>KvcSG\xf2\xd2gA\xecQ8=KneSG\xa4peA\x8f\xc2u=K\x85nSG%\x06eA#\xdby=K\x8d\x83SG\x1f\x85oA\x12\x83@=K\x88\x84SG\x12\x83pA333>KZ\x88SG=\nsA\xfc\xa9q=Kd\x89SG\xd3MnA\xaeGa=K{\x8aSG\xb4\xc8nA\xd1"\xdb=Kn\x8bSG\xfc\xa9uA\xf4\xfdT=Kn\x8dSG\xcd\xccrA333>K\\\x8eSG\x02+uA333>K\\\x90SG\x7fjtA\xcd\xcc\xcc=Kn\x91SG\x1b/uA\x02+\x07>Kl\x92SG+\x87vA\x00\x00\x80>KR\x99SG)\\yA333>KZ\x9aSG\x02+}A333>KW\x9bSGF\xb6uA\x96C\x8b=Kd\x9cSG7\x89}A\xb6\xf3\xbd>KR\x9dSGb\x10xA333>KW\x9eSG\xb6\xf3}A\n\xd7\xa3=KM\xa1SG\xbct}A^\xbaI>KJ\xa3SG\x8d\x97|A\xcf\xf7S>KT\xaeSG\xf0\xa7\x80AJ\x0c\x02>KJ\xafSG\xd3M\x82AP\x8d\x17>KM\xb6SG\x04V~A\xecQ\xb8=KE\xbcSG\x8d\x97\x83A333>KR\xbdSG\xaa\xf1\x80A\x8blg>KC\xbeSGT\xe3\x84A\x0c\x02\xab>K;\xc8SG\xb6\xf3\x84A\x00\x00\x80>KT\xc9SG\xbe\x9f\x85A\x00\x00\x80>K=\xcaSG\xf8S\x86A\x00\x00\x80>K@\xceSG\xee|\x82A\xe7\xfb\xa9=K@\xcfSG\xd9\xce\x82A333>'
p89
tp90
bsS'colors'
p91
(dp92
g8
(dp93
S'mjd'
p94
(lp95
sS'dmag'
p96
(lp97
sS'mag'
p98
(lp99
ssg13
(dp100
g94
(lp101
sg96
(lp102
sg98
(lp103
ssg15
(dp104
g94
(lp105
sg96
(lp106
sg98
(lp107
ssg17
(dp108
g94
(lp109
sg96
(lp110
sg98
(lp111
ssg19
(dp112
g94
(lp113
sg96
(lp114
sg98
(lp115
ssg21
(dp116
g94
(lp117
sg96
(lp118
sg98
(lp119
ssg23
(dp120
g94
(lp121
sg96
(lp122
sg98
(lp123
ssg25
(dp124
g94
(lp125
sg96
(lp126
sg98
(lp127
ssg27
(dp128
g94
(lp129
sg96
(lp130
sg98
(lp131
ssg29
(dp132
g94
(lp133
sg96
(lp134
sg98
(lp135
ssg31
(dp136
g94
(lp137
sg96
(lp138
sg98
(lp139
ssg33
(dp140
g94
(lp141
sg96
(lp142
sg98
(lp143
ssg35
(dp144
g94
(lp145
sg96
(lp146
sg98
(lp147
ssg37
(dp148
g94
(lp149
sg96
(lp150
sg98
(lp151
ssg39
(dp152
g94
(lp153
sg96
(lp154
sg98
(lp155
ssg41
(dp156
g94
(lp157
sg96
(lp158
sg98
(lp159
ssg43
(dp160
g94
(lp161
sg96
(lp162
sg98
(lp163
ssg45
(dp164
g94
(lp165
sg96
(lp166
sg98
(lp167
ssg47
(dp168
g94
(lp169
sg96
(lp170
sg98
(lp171
ssg49
(dp172
g94
(lp173
sg96
(lp174
sg98
(lp175
ssg51
(dp176
g94
(lp177
sg96
(lp178
sg98
(lp179
ssg53
(dp180
g94
(lp181
sg96
(lp182
sg98
(lp183
sssS'filters'
p184
(dp185
S'B'
p186
I0
sS'I'
p187
I0
sS'H'
p188
I0
sS'K'
p189
I0
sS'J'
p190
I0
sS'i'
p191
I0
sS'R'
p192
I0
sS'u'
p193
I0
sS'V'
p194
I0
sS'U'
p195
I0
sS'r'
p196
I0
ssS'snnameshort'
p197
S'07C'
p198
sS'templsol'
p199
(dp200
g186
Nsg187
Nsg188
Nsg189
Nsg190
Nsg191
Nsg192
Nsg193
Nsg194
Nsg195
Nsg196
NssS'Vmaxmag'
p201
F0.0
sS'Vmaxflag'
p202
I00
sS'stats'
p203
(dp204
g186
(isnclasses
snstats
p205
(dp206
S'polyrchisq'
p207
F0.0
sS'Rdm15'
p208
F0.0
sS'tlim'
p209
(lp210
F0.0
aF0.0
asS'maglim'
p211
(lp212
F0.0
aF0.0
asS'templresid'
p213
NsS'polyresid'
p214
NsS'dm15'
p215
F0.0
sS'polydeg'
p216
F0.0
sS'success'
p217
I0
sS'flagmiss15'
p218
I0
sS'flagmissmax'
p219
I0
sS'm15data'
p220
(lp221
F0.0
aF0.0
asS'band'
p222
g3
sS'templrchisq'
p223
F0.0
sS'flagbadfit'
p224
I0
sS'Rdm15lin'
p225
(lp226
F0.0
aF0.0
asS'templatefit'
p227
(dp228
S'stretch'
p229
F1.0
sS'yoffset'
p230
F0.0
sS'xoffset'
p231
F0.0
sS'xstretch'
p232
F1.0
ssS'dm15lin'
p233
(lp234
F0.0
aF0.0
asS'maxjd'
p235
(lp236
F0.0
aF0.0
asS'norm'
p237
F0.0
sg229
F0.0
sbsg187
(isnclasses
snstats
p238
(dp239
g207
F0.0
sg208
F0.0
sg209
(lp240
F0.0
aF0.0
asg211
(lp241
F0.0
aF0.0
asg213
Nsg214
Nsg215
F0.0
sg216
F0.0
sg217
I0
sg218
I0
sg219
I0
sg220
(lp242
F0.0
aF0.0
asg222
g3
sg223
F0.0
sg224
I0
sg225
(lp243
F0.0
aF0.0
asg227
(dp244
g229
F1.0
sg230
F0.0
sg231
F0.0
sg232
F1.0
ssg233
(lp245
F0.0
aF0.0
asg235
(lp246
F0.0
aF0.0
asg237
F0.0
sg229
F0.0
sbsg188
(isnclasses
snstats
p247
(dp248
g207
F0.0
sg208
F0.0
sg209
(lp249
F0.0
aF0.0
asg211
(lp250
F0.0
aF0.0
asg213
Nsg214
Nsg215
F0.0
sg216
F0.0
sg217
I0
sg218
I0
sg219
I0
sg220
(lp251
F0.0
aF0.0
asg222
g3
sg223
F0.0
sg224
I0
sg225
(lp252
F0.0
aF0.0
asg227
(dp253
g229
F1.0
sg230
F0.0
sg231
F0.0
sg232
F1.0
ssg233
(lp254
F0.0
aF0.0
asg235
(lp255
F0.0
aF0.0
asg237
F0.0
sg229
F0.0
sbsg189
(isnclasses
snstats
p256
(dp257
g207
F0.0
sg208
F0.0
sg209
(lp258
F0.0
aF0.0
asg211
(lp259
F0.0
aF0.0
asg213
Nsg214
Nsg215
F0.0
sg216
F0.0
sg217
I0
sg218
I0
sg219
I0
sg220
(lp260
F0.0
aF0.0
asg222
g3
sg223
F0.0
sg224
I0
sg225
(lp261
F0.0
aF0.0
asg227
(dp262
g229
F1.0
sg230
F0.0
sg231
F0.0
sg232
F1.0
ssg233
(lp263
F0.0
aF0.0
asg235
(lp264
F0.0
aF0.0
asg237
F0.0
sg229
F0.0
sbsg190
(isnclasses
snstats
p265
(dp266
g207
F0.0
sg208
F0.0
sg209
(lp267
F0.0
aF0.0
asg211
(lp268
F0.0
aF0.0
asg213
Nsg214
Nsg215
F0.0
sg216
F0.0
sg217
I0
sg218
I0
sg219
I0
sg220
(lp269
F0.0
aF0.0
asg222
g3
sg223
F0.0
sg224
I0
sg225
(lp270
F0.0
aF0.0
asg227
(dp271
g229
F1.0
sg230
F0.0
sg231
F0.0
sg232
F1.0
ssg233
(lp272
F0.0
aF0.0
asg235
(lp273
F0.0
aF0.0
asg237
F0.0
sg229
F0.0
sbsg191
(isnclasses
snstats
p274
(dp275
g207
F0.0
sg208
F0.0
sg209
(lp276
F0.0
aF0.0
asg211
(lp277
F0.0
aF0.0
asg213
Nsg214
Nsg215
F0.0
sg216
F0.0
sg217
I0
sg218
I0
sg219
I0
sg220
(lp278
F0.0
aF0.0
asg222
g3
sg223
F0.0
sg224
I0
sg225
(lp279
F0.0
aF0.0
asg227
(dp280
g229
F1.0
sg230
F0.0
sg231
F0.0
sg232
F1.0
ssg233
(lp281
F0.0
aF0.0
asg235
(lp282
F0.0
aF0.0
asg237
F0.0
sg229
F0.0
sbsg192
(isnclasses
snstats
p283
(dp284
g207
F0.0
sg208
F0.0
sg209
(lp285
F0.0
aF0.0
asg211
(lp286
F0.0
aF0.0
asg213
Nsg214
Nsg215
F0.0
sg216
F0.0
sg217
I0
sg218
I0
sg219
I0
sg220
(lp287
F0.0
aF0.0
asg222
g3
sg223
F0.0
sg224
I0
sg225
(lp288
F0.0
aF0.0
asg227
(dp289
g229
F1.0
sg230
F0.0
sg231
F0.0
sg232
F1.0
ssg233
(lp290
F0.0
aF0.0
asg235
(lp291
F0.0
aF0.0
asg237
F0.0
sg229
F0.0
sbsg193
(isnclasses
snstats
p292
(dp293
g207
F0.0
sg208
F0.0
sg209
(lp294
F0.0
aF0.0
asg211
(lp295
F0.0
aF0.0
asg213
Nsg214
Nsg215
F0.0
sg216
F0.0
sg217
I0
sg218
I0
sg219
I0
sg220
(lp296
F0.0
aF0.0
asg222
g3
sg223
F0.0
sg224
I0
sg225
(lp297
F0.0
aF0.0
asg227
(dp298
g229
F1.0
sg230
F0.0
sg231
F0.0
sg232
F1.0
ssg233
(lp299
F0.0
aF0.0
asg235
(lp300
F0.0
aF0.0
asg237
F0.0
sg229
F0.0
sbsg194
(isnclasses
snstats
p301
(dp302
g207
F0.0
sg208
F0.0
sg209
(lp303
F0.0
aF0.0
asg211
(lp304
F0.0
aF0.0
asg213
Nsg214
Nsg215
F0.0
sg216
F0.0
sg217
I0
sg218
I0
sg219
I0
sg220
(lp305
F0.0
aF0.0
asg222
g3
sg223
F0.0
sg224
I0
sg225
(lp306
F0.0
aF0.0
asg227
(dp307
g229
F1.0
sg230
F0.0
sg231
F0.0
sg232
F1.0
ssg233
(lp308
F0.0
aF0.0
asg235
(lp309
F0.0
aF0.0
asg237
F0.0
sg229
F0.0
sbsg195
(isnclasses
snstats
p310
(dp311
g207
F0.0
sg208
F0.0
sg209
(lp312
F0.0
aF0.0
asg211
(lp313
F0.0
aF0.0
asg213
Nsg214
Nsg215
F0.0
sg216
F0.0
sg217
I0
sg218
I0
sg219
I0
sg220
(lp314
F0.0
aF0.0
asg222
g3
sg223
F0.0
sg224
I0
sg225
(lp315
F0.0
aF0.0
asg227
(dp316
g229
F1.0
sg230
F0.0
sg231
F0.0
sg232
F1.0
ssg233
(lp317
F0.0
aF0.0
asg235
(lp318
F0.0
aF0.0
asg237
F0.0
sg229
F0.0
sbsg196
(isnclasses
snstats
p319
(dp320
g207
F0.0
sg208
F0.0
sg209
(lp321
F0.0
aF0.0
asg211
(lp322
F0.0
aF0.0
asg213
Nsg214
Nsg215
F0.0
sg216
F0.0
sg217
I0
sg218
I0
sg219
I0
sg220
(lp323
F0.0
aF0.0
asg222
g3
sg223
F0.0
sg224
I0
sg225
(lp324
F0.0
aF0.0
asg227
(dp325
g229
F1.0
sg230
F0.0
sg231
F0.0
sg232
F1.0
ssg233
(lp326
F0.0
aF0.0
asg235
(lp327
F0.0
aF0.0
asg237
F0.0
sg229
F0.0
sbssS'lc'
p328
(dp329
g94
g56
(g57
(I0
tp330
g59
tp331
Rp332
(I1
(I209
tp333
g76
I00
S'\x7fbSG\x83eSG\x8djSGupSG\x81pSG\\}SGk\x88SGd\x8eSG}\x8fSG^\x90SGb\x99SGP\x9aSGd\x9cSGG\xacSGO\xd8SG\x7fbSG\x82eSG\x8cjSGsnSGtpSG\x80pSGvxSG[}SG[\x84SGl\x86SGj\x88SGl\x89SGc\x8eSG|\x8fSG]\x90SG_\x91SGW\x92SGn\x98SGa\x99SGO\x9aSGc\x9cSGF\xacSGD\xc0SGM\xc1SGN\xd8SGB\xdaSG7\xddSGU\xdfSGI\xedSG~bSG\x81eSG\x8cjSGsnSGtpSG\x80pSGuxSGZ}SG[\x84SGj\x88SGl\x89SGc\x8eSG|\x8fSG]\x90SG_\x91SGW\x92SGm\x98SGa\x99SGN\x9aSGc\x9cSGE\xacSG]\xbeSGL\xc1SGM\xd8SGA\xdaSG6\xddSGT\xdfSGH\xedSG~bSG\x81eSG\x8bjSGrnSGtpSG\x80pSGuxSGZ}SGZ\x84SGj\x88SGk\x89SGc\x8eSG|\x8fSG\\\x90SG_\x91SGW\x92SGm\x98SGa\x99SGM\x9aSGb\x9cSGD\xacSGR\xb4SG]\xbeSGC\xc0SGK\xc1SGF\xc2SG@\xdaSG5\xddSGS\xdfSGG\xedSGvcSGneSG\x85nSG\x80pSG\x8d\x83SG\x88\x84SGZ\x88SGd\x89SG{\x8aSGn\x8bSGn\x8dSG\\\x8eSG\\\x90SGn\x91SGl\x92SG_\x98SGR\x99SGZ\x9aSGW\x9bSGd\x9cSGR\x9dSGW\x9eSGO\xa0SGM\xa1SGJ\xa3SGT\xaeSGJ\xafSGM\xb5SGM\xb6SGE\xbcSGC\xbeSG=\xc0SG;\xc8SGT\xc9SG=\xcaSG@\xceSG@\xcfSGvcSGneSG\x85nSG\x80pSGi{SG\x8d\x83SG\x88\x84SGZ\x88SGd\x89SG{\x8aSGn\x8bSGn\x8dSG\\\x8eSG\\\x90SGn\x91SGl\x92SGW\x93SG_\x98SGR\x99SGZ\x9aSGW\x9bSGd\x9cSGR\x9dSGW\x9eSGO\xa0SGM\xa1SGJ\xa3SGT\xaeSGJ\xafSGM\xb5SGM\xb6SGE\xbcSGC\xbeSG;\xc8SGT\xc9SG=\xcaSG@\xcfSGvcSGneSG\x85nSG\x8d\x83SG\x88\x84SGZ\x88SGd\x89SG{\x8aSGn\x8bSGn\x8dSG\\\x8eSG\\\x90SGn\x91SGl\x92SGR\x99SGZ\x9aSGW\x9bSGd\x9cSGR\x9dSGW\x9eSGM\xa1SGJ\xa3SGT\xaeSGJ\xafSGM\xb6SGE\xbcSGR\xbdSGC\xbeSG;\xc8SGT\xc9SG=\xcaSG@\xceSG@\xcfSG'
p334
tp335
bsS'ccmag'
p336
g56
(g57
(I0
tp337
g59
tp338
Rp339
(I1
(I209
tp340
g76
I00
S"\x7fj\x8aA5^\x8bA\xb6\xf3\x8fA\x8d\x97\x95A\x04V\x96A\xaeG\x9cAH\xe1\x9dA\x0e-\x9dA-\xb2\x9dANb\x9dAw\xbe\xa0A\xe3\xa5\x9eA'1\xa0A\xb2\x9d\x9fA\xc1\xca\xa6A\x0e-\x81A\x00\x00\x81A%\x06\x83AJ\x0c\x86AV\x0e\x87A\xa2E\x87A\x12\x83\x8bAH\xe1\x8dA\xaa\xf1\x8fA\xf4\xfd\x8fA\xd3M\x90A\\\x8f\x90AR\xb8\x90A\xbct\x91A\xf4\xfd\x91A1\x08\x92A\xd3M\x91A\xcd\xcc\x91A\xc5 \x92A\xb2\x9d\x92A\x04V\x93A=\n\x95A#\xdb\x98A\x00\x00\x99A\x91\xed\x9cA\xe1z\x9bA\xee|\x9dA?5\x9dA\x1f\x85\x9eA\xe3\xa5}A\x12\x83|A5^~A\x98n\x81A\xe1z\x82A\x06\x81\x82AD\x8b\x86A\xfa~\x88Ad;\x8aA\xf6(\x8bAH\xe1\x8aA\xd3M\x8cA\xcb\xa1\x8cA^\xba\x8cA\xc5 \x8dAq=\x8dA\xf4\xfd\x8dA\x93\x18\x8eA?5\x8eA\x1f\x85\x8eA`\xe5\x90A\x0c\x02\x93A\xb0r\x94A\x89A\x97A^\xba\x97Ah\x91\x98A\x87\x16\x99A}?\x99A\x08\xaczA\x87\x16yAT\xe3yAsh}AF\xb6\x7fAX9\x80AR\xb8\x84ANb\x85A\xb2\x9d\x87A\xfa~\x88A\xc7K\x88A\xbe\x9f\x89A9\xb4\x89A1\x08\x8aA33\x8aA\xd5x\x8aA\xecQ\x8bA\xdb\xf9\x8bA\x17\xd9\x8bA\xf6(\x8cA\x1dZ\x8eA\xe3\xa5\x8eA\x00\x00\x92A\xbaI\x91ANb\x92A\x19\x04\x92A\x12\x83\x95A!\xb0\x95A\xb0r\x96A\x12\x83\x98A\xd7\xa3lA\xb8\x1ekA\xc9vjAw\xbekA\xf8SyA\x1dZzAB`{A\x85\xeb{A\x1dZ|A\x00\x00~A\xdfO\x7fA\xdfO\x7fA\xdb\xf9~A\xb0r~A\x10X\x80A\xa2E\x82A'1\x82A\xf0\xa7\x82A\x85\xeb\x82Aj\xbc\x82A5^\x83Am\xe7\x83A\x1f\x85\x84AF\xb6\x84A\xe5\xd0\x84A'1\x87A\x87\x16\x87AR\xb8\x88A\x0c\x02\x88A\x89A\x89AB`\x89A\x81\x95\x8bAX9\x8cA33\x8dA`\xe5\x8eA\xecQ\x8cA\x19\x04\x8eA\x0c\x02mA\x85\xebiA\x8d\x97jA\x91\xedhA=\noA\xdfOsAb\x10rA\xe1ztA\xe5\xd0vA\x98nvA\xc5 xA\xd3MvA\xf4\xfdvA\x0e-vAy\xe9xA\xcf\xf7{ANbvA\xe3\xa5yA\xa4pyA\xfe\xd4|A\x91\xed|Aff|Ad;}A\xa8\xc6\x7fAb\x10\x80A\xfa~\x80A\xbaI\x80A\x87\x16\x84A\xd5x\x82A\x08\xac\x84A\xee|\x84A\xdfO\x86AR\xb8\x86A9\xb4\x89A\xd7\xa3\x87A\xfa~\x8aA\x96C\x8aA\xf2\xd2gA\xa4peA%\x06eA\x1f\x85oA\x12\x83pA=\nsA\xd3MnA\xb4\xc8nA\xfc\xa9uA\xcd\xccrA\x02+uA\x7fjtA\x1b/uA+\x87vA)\\yA\x02+}AF\xb6uA7\x89}Ab\x10xA\xb6\xf3}A\xbct}A\x8d\x97|A\xf0\xa7\x80A\xd3M\x82A\x04V~A\x8d\x97\x83A\xaa\xf1\x80AT\xe3\x84A\xb6\xf3\x84A\xbe\x9f\x85A\xf8S\x86A\xee|\x82A\xd9\xce\x82A"
p341
tp342
bsg98
g56
(g57
(I0
tp343
g59
tp344
Rp345
(I1
(I209
tp346
g76
I00
S'#\xdb\x89Aj\xbc\x8aA\x02+\x8fA^\xba\x94A\x7fj\x95A\x7fj\x9bAb\x10\x9dA\xc9v\x9cA\xc3\xf5\x9cA\x14\xae\x9cA\n\xd7\x9fA\x91\xed\x9dAff\x9fA\xf4\xfd\x9eA\x02+\xa6A\x04V\x81A\x0e-\x81A}?\x83A\xbaI\x86A\xdfO\x87A+\x87\x87A\xa8\xc6\x8bA\xc5 \x8eA\x1b/\x90Ad;\x90A7\x89\x90A\xb4\xc8\x90A\x91\xed\x90A\xfc\xa9\x91A33\x92A}?\x92A+\x87\x91A1\x08\x92A)\\\x92A\n\xd7\x92A7\x89\x93Ad;\x95A\xf4\xfd\x98A\xd1"\x99A\xa0\x1a\x9dA\xf0\xa7\x9bA\xf0\xa7\x9dAB`\x9dA\x14\xae\x9eAw\xbe}A\xa6\x9b|A\xc9v~A\xbct\x81A\x12\x83\x82AD\x8b\x82A\x81\x95\x86A\xee|\x88A33\x8aA\xe9&\x8bA\n\xd7\x8aA\xa2E\x8cA\xb2\x9d\x8cAF\xb6\x8cA\xc5 \x8dA}?\x8dA1\x08\x8eA\xd1"\x8eAd;\x8eA\xfa~\x8eAT\xe3\x90AH\xe1\x92A5^\x94A\x1b/\x97A\xf0\xa7\x97A\x12\x83\x98AJ\x0c\x99A\xe9&\x99A/\xddzA\xc7KyA\xdd$zA\xe3\xa5}A\xe7\xfb\x7fA5^\x80AH\xe1\x84A\xfa~\x85AR\xb8\x87A\x9a\x99\x88AZd\x88AF\xb6\x89A\xc1\xca\x89A\xb8\x1e\x8aA\xc7K\x8aAu\x93\x8aA\xb0r\x8bA\xac\x1c\x8cA\xcf\xf7\x8bA}?\x8cA\x98n\x8eA\x08\xac\x8eA1\x08\x92A\xc7K\x91Ash\x92A1\x08\x92Ah\x91\x95Aj\xbc\x95A\x06\x81\x96Au\x93\x98A\xd7\xa3lA\xb8\x1ekA\xc9vjAw\xbekA\xf8SyA\x1dZzAB`{A\x85\xeb{A\x1dZ|A\x00\x00~A\xdfO\x7fA\xdfO\x7fA\xdb\xf9~A\xb0r~A\x10X\x80A\xa2E\x82A\'1\x82A\xf0\xa7\x82A\x85\xeb\x82Aj\xbc\x82A5^\x83Am\xe7\x83A\x1f\x85\x84AF\xb6\x84A\xe5\xd0\x84A\'1\x87A\x87\x16\x87AR\xb8\x88A\x0c\x02\x88A\x89A\x89AB`\x89A\x81\x95\x8bAX9\x8cA33\x8dA`\xe5\x8eA\xecQ\x8cA\x19\x04\x8eA\x0c\x02mA\x85\xebiA\x8d\x97jA\x91\xedhA=\noA\xdfOsAb\x10rA\xe1ztA\xe5\xd0vA\x98nvA\xc5 xA\xd3MvA\xf4\xfdvA\x0e-vAy\xe9xA\xcf\xf7{ANbvA\xe3\xa5yA\xa4pyA\xfe\xd4|A\x91\xed|Aff|Ad;}A\xa8\xc6\x7fAb\x10\x80A\xfa~\x80A\xbaI\x80A\x87\x16\x84A\xd5x\x82A\x08\xac\x84A\xee|\x84A\xdfO\x86AR\xb8\x86A9\xb4\x89A\xd7\xa3\x87A\xfa~\x8aA\x96C\x8aA\xf2\xd2gA\xa4peA%\x06eA\x1f\x85oA\x12\x83pA=\nsA\xd3MnA\xb4\xc8nA\xfc\xa9uA\xcd\xccrA\x02+uA\x7fjtA\x1b/uA+\x87vA)\\yA\x02+}AF\xb6uA7\x89}Ab\x10xA\xb6\xf3}A\xbct}A\x8d\x97|A\xf0\xa7\x80A\xd3M\x82A\x04V~A\x8d\x97\x83A\xaa\xf1\x80AT\xe3\x84A\xb6\xf3\x84A\xbe\x9f\x85A\xf8S\x86A\xee|\x82A\xd9\xce\x82A'
p347
tp348
bsS'photcode'
p349
g56
(g57
(I0
tp350
g59
tp351
Rp352
(I1
(I209
tp353
g63
(S'S2'
p354
I0
I1
tp355
Rp356
(I3
S'|'
p357
NNNI2
I1
I0
tp358
bI00
S'020202020202020202020202020202030303030303030303030303030303030303030303030303030303030313131313131313131313131313131313131313131313131313131313141414141414141414141414141414141414141414141414141414141414J\x00J\x00J\x00J\x00J\x00J\x00J\x00J\x00J\x00J\x00J\x00J\x00J\x00J\x00J\x00J\x00J\x00J\x00J\x00J\x00J\x00J\x00J\x00J\x00J\x00J\x00J\x00J\x00J\x00J\x00J\x00J\x00J\x00J\x00J\x00J\x00J\x00H\x00H\x00H\x00H\x00H\x00H\x00H\x00H\x00H\x00H\x00H\x00H\x00H\x00H\x00H\x00H\x00H\x00H\x00H\x00H\x00H\x00H\x00H\x00H\x00H\x00H\x00H\x00H\x00H\x00H\x00H\x00H\x00H\x00H\x00H\x00H\x00H\x00K\x00K\x00K\x00K\x00K\x00K\x00K\x00K\x00K\x00K\x00K\x00K\x00K\x00K\x00K\x00K\x00K\x00K\x00K\x00K\x00K\x00K\x00K\x00K\x00K\x00K\x00K\x00K\x00K\x00K\x00K\x00K\x00K\x00'
p359
tp360
bsg96
g56
(g57
(I0
tp361
g59
tp362
Rp363
(I1
(I209
tp364
g76
I00
S'\xbct\x93<\xe3\xa5\x9b<\xb6\xf3\xfd<)\\\x0f=\xcd\xccL=`\xe5\xd0=\x12\x83\xc0=\x1f\x85\xeb=Nb\x10>\x14\xaeG>7\x89A>\x9a\x99\x19>P\x8d\x17>#\xdby>\x1f\x85k>\xf4\xfdT<\xa6\x9bD<B`e<o\x12\x83<\xe3\xa5\x9b<1\x08\xac<\x8f\xc2\xf5<o\x12\x03=o\x12\x03=\\\x8f\xc2=h\x91\xed<\x02+\x87=X94=X94=\x12\x83@=h\x91m=\x06\x81\x95=\xd5xi=\xa6\x9bD=X94=\x96C\x0b=\xd5xi=\x96C\x8b=#\xdby=\xd1"\xdb=\xa6\x9b\xc4=d;\xdf=\x8f\xc2\xf5=H\xe1z>B`e<B`e<o\x12\x83<\x8f\xc2u<\x96C\x8b<\xbct\x93<\n\xd7\xa3<\n\xd7\xa3<1\x08\xac<\n\xd7\xa3<)\\\x0f=\xcd\xcc\xcc<B`\xe5<B`\xe5<\xbct\x13=\xcd\xccL=\xb6\xf3\xfd<B`\xe5<\xe3\xa5\x9b<\x1b/\xdd<\x8f\xc2\xf5<\xc5 0=w\xbe\x1f=9\xb4H=\x8f\xc2u=\x8f\xc2u=\xdfO\x8d=\x06\x81\x95=\n\xd7\xa3<\xe3\xa5\x9b<X9\xb4<\n\xd7\xa3<\x7fj\xbc<\x1b/\xdd<\x96C\x0b=\xa6\x9b\xc4<\x7fj\xbc<\xcd\xcc\xcc<\x96C\x0b=B`\xe5<h\x91\xed<\x8f\xc2\xf5<\xb6\xf3\xfd<\xecQ8=\x02+\x07=)\\\x0f=\x8f\xc2\xf5<h\x91\xed<\x8f\xc2\xf5<%\x06\x81=\xa6\x9bD=\xe3\xa5\x1b=`\xe5P=X94=\x8f\xc2u=\x02+\x87=)\\\x8f=\x9e\xef\xa7=\xbct\x13<\x8f\xc2u<333>\xc5 0=\xc5 \xb0=1\x08\xac<o\x12\x83<\x00\x00\x80>X94<333>1\x08,=B`e<\xbct\x93=\x02+\x87=\xc1\xca\xa1=\n\xd7\xa3<333>1\x08\xac<B`e=1\x08\xac<L7\x89=\x8f\xc2\xf5<\xcd\xcc\xcc<333>333>333>\x00\x00\x80>333>\n\xd7#=333>\x87\x16Y=333>\x00\x00\x80>{\x14\xae=333>333>1\x08,>333>)\\\x8f=\x1b/]=\x8f\xc2u<9\xb4H=\x06\x81\x15>333>)\\\x0f=!\xb0r>\xbct\x13=\xecQ8=333>\x9e\xef\'=333>333>333>333>+\x87\x16>\x00\x00\x80>\x1b/]=\xbct\x93=\xcf\xf7\x93>o\x12\x03>%\x06\x81=\x17\xd9\xce=333>\xc5 \xb0=333>\x9e\xef\'=\x00\x00\x80>\xa2E\xb6=\x00\x00\x80>\xa2E6>`\xe5P>333>b\x10\x98>333>\xecQ8=\x8f\xc2u=#\xdby=\x12\x83@=333>\xfc\xa9q=\xaeGa=\xd1"\xdb=\xf4\xfdT=333>333>\xcd\xcc\xcc=\x02+\x07>\x00\x00\x80>333>333>\x96C\x8b=\xb6\xf3\xbd>333>\n\xd7\xa3=^\xbaI>\xcf\xf7S>J\x0c\x02>P\x8d\x17>\xecQ\xb8=333>\x8blg>\x0c\x02\xab>\x00\x00\x80>\x00\x00\x80>\x00\x00\x80>\xe7\xfb\xa9=333>'
p365
tp366
bssS'Rmax'
p367
(dp368
sS'polyfit'
p369
NsS'ebmvtot'
p370
F0.0
sS'Vmax'
p371
F2454115.94
sS'type'
p372
S'Ib'
p373
sS'metadata'
p374
(dp375
g3
S'1.612'
p376
sS'cfaUmaxerr'
p377
S'-'
p378
sS'v2 Fe II 5169 date'
p379
S'-2.3'
p380
sS'D11Rmax'
p381
g3
sS'v_z'
p382
S'1767'
p383
sS'E(b-v)hosterr'
p384
S'0.12'
p385
sS'v1 Fe II 5018 date'
p386
g378
sS'cfaRmaxerr'
p387
S'0.01'
p388
sS'CfA RJD bootstrap'
p389
S'54117.8'
p390
sS'inclination from axes sdss'
p391
S'--'
p392
sS'my E(B-V)host from inclination'
p393
S'0.262508943641661'
p394
sS'RA'
p395
S'13:08:49'
p396
sS'cfaVmaxerr'
p397
S'0.02'
p398
sS'Dm15 (with Lyman BC correction)'
p399
g3
sS'CfA E(B-V)host'
p400
S'0.659'
p401
sS'lcvquality'
p402
S'1'
p403
sS'v1 Fe II 5169 '
p404
S'-9262.4'
p405
sS'decdeg'
p406
S'-6.78361111111'
p407
sS'cfaVmax'
p408
S'16.13'
p409
sS'CfA VJD bootstrap error'
p410
S'0.51'
p411
sS'MaxVJD'
p412
S'2454116.8'
p413
sS'D11Vmaxdate'
p414
g3
sS'v1 Fe II 5018 '
p415
g378
sS'D11Rmaxdate'
p416
g3
sS'D11Rmaxerr'
p417
g3
sS'Fe II 5169 at maximum (linear interpolation error)'
p418
S'2565.61899743512'
p419
sS'D11Vmaxerr'
p420
g3
sS'axis ratio sdss'
p421
S'--'
p422
sS'D11Rmaxdateerr'
p423
g3
sS'v2 FeII 5018 date'
p424
g378
sS'DEC'
p425
S'-6:47:01'
p426
sS'Type'
p427
g373
sS'cfaJmaxerr'
p428
g378
sS'SNname'
p429
S'sn2007C'
p430
sS'Fe II 5169 at maximum (linear interpolation)'
p431
S'-9156.09'
p432
sS'inclination'
p433
S'43'
p434
sS'cfaHmaxerr'
p435
g378
sS'DFS E(B-V)'
p436
S'0.0422'
p437
sS'image subtraction needed'
p438
S'YN'
p439
sS'CfA BJD bootstrap'
p440
S'<0000000'
p441
sS'v1 Fe II 5169 date'
p442
S'-0.3'
p443
sS' CfA E(B-V)hosterr'
p444
S'0.061'
p445
sS'v2 Fe II 5018'
p446
g378
sS'P13 UV data'
p447
S'0'
p448
sS'cfaHmax'
p449
g378
sS'v2 Fe II 5169 error'
p450
S'1782.8'
p451
sS'CfA IJD bootstrap'
p452
S'<0000000'
p453
sS'cfaKmax'
p454
g378
sS'comment'
p455
S';dm15=1.05 for jdmax=1140; D11=2454116.5 '
p456
sS'dVJD CfA bootstrap'
p457
S'0.859999999869615'
p458
sS'radeg'
p459
S'197.204166667'
p460
sS'distance Mpc'
p461
S'25.4031474356'
p462
sS'inclination error'
p463
S'(+3,-3)'
p464
sS'PAIRITEL'
p465
S'Y'
p466
sS'cfaImax'
p467
S'15.56'
p468
sS'Fe II 5169 new'
p469
S'-9284.0693'
p470
sS'cfaBmaxerr'
p471
g378
sS'v2 Fe II 5018 error'
p472
g378
sS'E(b-v)host'
p473
S'0.64'
p474
sS'CfA photometric quality (1best, 3 worst)'
p475
g403
sS'inclination/E(B-V) ref'
p476
S'D11/D11'
p477
sS'cfaBmax'
p478
g378
sS'CfA IJD error'
p479
S'<0000000'
p480
sS'D11Vmaxdateerr'
p481
g3
sS'CfA dm15'
p482
S'-0.955'
p483
sS'Fe II 5018 at maximum (linear interpolation)'
p484
g378
sS'CfA BJD error'
p485
S'<0000000'
p486
sS'earliestV'
p487
S'--'
p488
sS'inclination from leida'
p489
S'44.7'
p490
sS'CfA dm15 linear'
p491
S'-1.184'
p492
sS'z'
p493
S'0.005894'
p494
sS'cfaImaxerr'
p495
S'0.02'
p496
sS'cfaJmax'
p497
g378
sS'max_ref'
p498
S'CfA'
p499
sS'v2 Fe II 5169'
p500
S'-9247.4'
p501
sS'FeII51691or2'
p502
S'-9254.9'
p503
sS'CfA VJD bootstrap'
p504
S'2454115.94'
p505
sS'v1 Fe II 5018 error'
p506
g378
sS'MaxVdate'
p507
S'20070116.6'
p508
sS'z_ref'
p509
S'NED'
p510
sS'D11Vmax'
p511
g3
sS'distanced11'
p512
S'25'
p513
sS'separation '
p514
g378
sS'hostgal'
p515
S'NGC4981'
p516
sS'E(B-V)'
p517
S'0.042'
p518
sS'inclination from axes'
p519
S'57.742878872031'
p520
sS'CfA RJD error'
p521
S'0.15'
p522
sS'cfaKmaxerr'
p523
g378
sS'axis ratio'
p524
S'0.599925567547451'
p525
sS'MaxVMag'
p526
S'16.14'
p527
sS'cfaRmax'
p528
S'15.79'
p529
sS'v1 Fe II 5169 error'
p530
S'1845'
p531
sS'E(B-V) SF2011'
p532
S'0.0363'
p533
sS'cfaUmax'
p534
g378
ssS'fnir'
p535
S'/Users/fbianco/science/Dropbox/strippedcfaSN//nirphot/PAIRITEL_Ibc/Ibc/lcs/mag/sn2007C_SN.62.rec.p3.fdi.exclude_bad.nntemp.galsub.f12.SNR3.clean.mag.dat'
p536
sg219
I00
sS'polysol'
p537
(dp538
g186
Nsg187
Nsg188
Nsg189
Nsg190
Nsg191
Nsg192
Nsg193
Nsg194
Nsg195
Nsg196
NssS'nir'
p539
I01
sS'maxmags'
p540
(dp541
g186
(dp542
g11
F0.0
sg96
Fnan
sg98
Fnan
ssg187
(dp543
g11
F0.0
sg96
Fnan
sg98
Fnan
ssg188
(dp544
g11
F0.0
sg96
Fnan
sg98
Fnan
ssg189
(dp545
g11
F0.0
sg96
Fnan
sg98
Fnan
ssg190
(dp546
g11
F0.0
sg96
Fnan
sg98
Fnan
ssg191
(dp547
g11
F0.0
sg96
Fnan
sg98
Fnan
ssg192
(dp548
g11
F0.0
sg96
Fnan
sg98
Fnan
ssg193
(dp549
g11
F0.0
sg96
Fnan
sg98
Fnan
ssg194
(dp550
g11
F0.0
sg96
Fnan
sg98
Fnan
ssg195
(dp551
g11
F0.0
sg96
Fnan
sg98
Fnan
ssg196
(dp552
g11
F0.0
sg96
Fnan
sg98
Fnan
sssS'snspline'
p553
(dp554
g186
Nsg187
Nsg188
Nsg189
Nsg190
Nsg191
Nsg192
Nsg193
Nsg194
Nsg195
Nsg196
NssS'pipeline'
p555
S'CfA3'
p556
sS'name'
p557
S'sn2007c'
p558
sS'solution'
p559
(dp560
g186
(dp561
S'resid'
p562
NsS'pars'
p563
NsS'sol'
p564
NsS'deg'
p565
Nssg187
(dp566
g562
Nsg563
Nsg564
Nsg565
Nssg188
(dp567
g562
Nsg563
Nsg564
Nsg565
Nssg189
(dp568
g562
Nsg563
Nsg564
Nsg565
Nssg190
(dp569
g562
Nsg563
Nsg564
Nsg565
Nssg191
(dp570
g562
Nsg563
Nsg564
Nsg565
Nssg192
(dp571
g562
Nsg563
Nsg564
Nsg565
Nssg193
(dp572
g562
Nsg563
Nsg564
Nsg565
Nssg194
(dp573
g562
Nsg563
Nsg564
Nsg565
Nssg195
(dp574
g562
Nsg563
Nsg564
Nsg565
Nssg196
(dp575
g562
Nsg563
Nsg564
Nsg565
NsssS'su'
p576
(itemplutils
setupvars
p577
(dp578
S'photcodes'
p579
(dp580
g186
(S'02'
p581
S'07'
p582
tp583
sg187
(S'05'
p584
S'0a'
p585
tp586
sg188
(g188
g188
tp587
sg189
(g189
g189
tp588
sg190
(g190
g190
tp589
sg192
(S'04'
p590
S'09'
p591
tp592
sg195
(S'01'
p593
S'06'
p594
tp595
sg194
(S'03'
p596
S'08'
p597
tp598
sg191
(S'14'
p599
S'0c'
p600
tp601
sg196
(S'13'
p602
S'0b'
p603
tp604
sg193
(S'15'
p605
g605
tp606
ssS'mysymbols'
p607
(dp608
S'Ic-bl'
p609
S'v'
p610
sS'other'
p611
S'x'
p612
sS'IIb'
p613
S'^'
p614
sS'IIb-n'
p615
S'>'
p616
sS'Ic'
p617
S's'
p618
sS'Ib'
p619
S'o'
p620
ssS'bandsnonir'
p621
(lp622
g195
ag193
ag186
ag194
ag192
ag187
ag196
ag191
asS'ebmvcfa'
p623
(dp624
S'07gr'
p625
F0.0462
sS'09iz'
p626
F0.064
sS'04aw'
p627
F0.352
sS'06aj'
p628
F0.141
sS'07ag'
p629
F0.627
sS'02ap'
p630
F0.03
sS'05kl'
p631
F1.344
sS'08bo'
p632
F0.294
sS'06lv'
p633
F0.574
sS'05kz'
p634
F0.437
sS'06F'
p635
F0.533
sS'07uy'
p636
F0.378
sS'08D'
p637
F0.572
sS'05bf'
p638
F0.05
sS'09jf'
p639
F0.045
sS'06bf'
p640
F0.368
sS'06fo'
p641
F0.201
sS'05mf'
p642
F0.231
sS'06T'
p643
F0.397
sS'07ce'
p644
F0.082
sS'07ru'
p645
F0.01
sS'03jd'
p646
F0.1
sS'07cl'
p647
F0.258
sS'09er'
p648
F0.11
sS'06el'
p649
F0.147
sS'06ep'
p650
F0.448
sS'07kj'
p651
F0.295
sS'07C'
p652
F0.65
sS'05hg'
p653
F0.244
ssS'insts'
p654
(lp655
S'shooter'
p656
aS'kepler'
p657
aS'mini'
p658
asS'mycolors'
p659
(dp660
g186
S'#0066cc'
p661
sg187
S'm'
p662
sg188
S'#FFB700'
p663
sg189
S'#A4A4A4'
p664
sg190
S'#4F088A'
p665
sg192
S'#b20000'
p666
sg195
S'k'
p667
sg194
S'#47b56c'
p668
sg191
g662
sg196
g666
sg193
g667
ssS'bands'
p669
(lp670
g195
ag193
ag186
ag194
ag192
ag187
ag196
ag191
ag190
ag188
ag189
asS'mylines'
p671
(dp672
g609
S'dotted'
p673
sg611
S'solid'
p674
sg613
g674
sg615
g674
sg617
g674
sg619
S'dashed'
p675
ssS'mytypecolors'
p676
(dp677
g609
g196
sg611
g667
sg613
S'g'
p678
sg615
S'y'
p679
sg617
g59
sg619
g667
ssS'mycolorcolors'
p680
(dp681
g45
S'#9999EE'
p682
sg33
S'#0B0B3B'
p683
sg43
g666
sg8
S'SlateBlue'
p684
sg13
g682
sg15
g662
sg23
g668
sg21
g662
sg49
g683
sg35
S'#70B8FF'
p685
sg31
g683
sg47
g683
sg37
g661
sg39
S'#FFCC80'
p686
sg51
g667
sg53
S'purple'
p687
sg41
g686
sg17
g666
sg19
g668
ssS'AonEBmV'
p688
(dp689
S'm2'
p690
F4.3
sg186
F4.315
sS'w1'
p691
F4.3
sg187
F1.94
sg188
F0.576
sg189
F0.367
sg190
F0.902
sg191
F2.086
sg192
F2.673
sg195
F5.434
sS'w2'
p692
F4.3
sS'vv'
p693
F3.315
sg194
F3.315
sg193
F5.155
sS'uu'
p694
F5.155
sg196
F2.751
ssS'instcodes'
p695
(dp696
g658
I1
sg657
I0
sg656
I0
ssS'ebmvs'
p697
(dp698
S'04ge'
p699
F0.0754
sS'04gk'
p700
F0.0247
sS'07aw'
p701
F0.0338
sS'04gt'
p702
F0.0398
sS'06gi'
p703
F0.0205
sS'04gv'
p704
F0.0286
sS'04gq'
p705
F0.0627
sg629
F0.025
sg642
F0.0153
sS'97dq'
p706
F0.0382
sS'05ek'
p707
F0.1811
sS'05eo'
p708
F0.0585
sS'98fa'
p709
F0.0382
sS'01ej'
p710
F0.046
sS'93J'
p711
F0.069
sg641
F0.025
sS'05nb'
p712
F0.032
sS'06ir'
p713
F0.0393
sS'09K'
p714
F0.0491
sS'04ff'
p715
F0.0281
sS'04fe'
p716
F0.021
sS'04ao'
p717
F0.0893
sg627
F0.018
sg631
F0.0219
sg633
F0.0245
sS'06ck'
p718
F0.0245
sS'05kf'
p719
F0.0378
sS'07hb'
p720
F0.0518
sg634
F0.046
sS'06ld'
p721
F0.0144
sS'06lc'
p722
F0.0556
sS'05da'
p723
F0.2483
sS'08hh'
p724
F0.0427
sg643
F0.0647
sS'07iq'
p725
F0.1182
sg648
F0.0389
sS'97ef'
p726
F0.0366
sS'96cb'
p727
F0.0262
sg626
F0.0729
sS'05az'
p728
F0.0097
sS'06cb'
p729
F0.0094
sS'05ar'
p730
F0.0394
sg632
F0.0513
sS'07bg'
p731
F0.0179
sS'01ai'
p732
F0.0081
sS'06jc'
p733
F0.0173
sS'06ss'
p734
F0.0178
sg635
F0.1635
sg636
F0.0194
sg638
F0.0385
sS'02ji'
p735
F0.0217
sS'97X'
p736
F0.0237
sg639
F0.0971
sg640
F0.0216
sS'06ba'
p737
F0.0452
sS'08an'
p738
F0.045
sg644
F0.02
sg645
F0.2254
sg646
F0.0784
sg647
F0.037
sS'07rz'
p739
F0.1723
sg649
F0.0973
sg650
F0.031
sg651
F0.0691
sS'08ax'
p740
F0.0186
sS'05U'
p741
F0.0143
sS'07ke'
p742
F0.0954
sS'08aq'
p743
F0.0383
sg625
F0.0535
sS'05la'
p744
F0.01
sS'94I'
p745
F0.0302
sS'95bb'
p746
F0.0948
sg628
F0.1267
sg630
F0.062
sS'98dt'
p747
F0.0219
sS'04eu'
p748
F0.0466
sS'00H'
p749
F0.1964
sS'01gd'
p750
F0.0098
sS'04dn'
p751
F0.0415
sg637
F0.0194
sS'95F'
p752
F0.0311
sS'08cw'
p753
F0.006
sS'07D'
p754
F0.2881
sg652
F0.0363
sg653
F0.0901
sS'04dk'
p755
F0.1357
sS'07I'
p756
F0.025
ssS'ebmvhost'
p757
(dp758
g625
F0.038
sg630
F0.03
sg645
F0.01
sg646
F0.1
sg627
F0.352
sg740
F0.4
sg637
F0.5406
ssS'cs'
p759
(dp760
g8
I13
sg13
I8
sg15
I7
sg17
I3
sg19
I2
sg21
I6
sg23
I5
sg25
I16
sg27
I18
sg29
I17
sg31
I11
sg33
I19
sg35
I10
sg37
I1
sg39
I9
sg41
I14
sg43
I4
sg45
I9
sg47
I11
sg49
I15
sg51
I0
sg53
I12
ssS'bandsindex'
p761
(dp762
g186
I1
sg187
I4
sg188
I8
sg189
I9
sg190
I7
sg192
I3
sg195
I0
sg194
I2
sg191
I6
sg196
I5
sg193
I0
ssS'bandsnir'
p763
(lp764
g190
ag188
ag189
asS'myshapes'
p765
(dp766
g186
g618
sg187
g616
sg188
g618
sg189
g620
sg190
g614
sg192
g610
sg195
g614
sg194
g620
sg191
S'h'
p767
sg196
S'd'
p768
sg193
g614
ssS'types'
p769
(lp770
g619
ag617
ag613
ag609
ag615
asS'cbands'
p771
(lp772
g51
ag47
ag31
ag37
ag19
ag17
ag43
ag23
ag21
ag15
ag13
ag53
ag8
ag41
ag49
ag25
ag29
ag27
aS'H-i'
p773
aS'J-H'
p774
aS'K-J'
p775
asbsS'n'
p776
NsS'dr15'
p777
F0.0
sS'photometry'
p778
(dp779
g186
(dp780
g94
g56
(g57
(I0
tp781
g59
tp782
Rp783
(I1
(I0
tp784
g63
(S'f8'
p785
I0
I1
tp786
Rp787
(I3
S'<'
p788
NNNI-1
I-1
I0
tp789
bI00
g3
tp790
bsS'camsys'
p791
(lp792
g3
asS'natmag'
p793
g56
(g57
(I0
tp794
g59
tp795
Rp796
(I1
(I0
tp797
g787
I00
g3
tp798
bsg96
g56
(g57
(I0
tp799
g59
tp800
Rp801
(I1
(I0
tp802
g787
I00
g3
tp803
bsS'extmag'
p804
g56
(g57
(I0
tp805
g59
tp806
Rp807
(I1
(I0
tp808
g787
I00
g3
tp809
bsg98
g56
(g57
(I0
tp810
g59
tp811
Rp812
(I1
(I0
tp813
g787
I00
g3
tp814
bssg187
(dp815
g94
g56
(g57
(I0
tp816
g59
tp817
Rp818
(I1
(I0
tp819
g787
I00
g3
tp820
bsg791
(lp821
g3
asg793
g56
(g57
(I0
tp822
g59
tp823
Rp824
(I1
(I0
tp825
g787
I00
g3
tp826
bsg96
g56
(g57
(I0
tp827
g59
tp828
Rp829
(I1
(I0
tp830
g787
I00
g3
tp831
bsg804
g56
(g57
(I0
tp832
g59
tp833
Rp834
(I1
(I0
tp835
g787
I00
g3
tp836
bsg98
g56
(g57
(I0
tp837
g59
tp838
Rp839
(I1
(I0
tp840
g787
I00
g3
tp841
bssg188
(dp842
g94
g56
(g57
(I0
tp843
g59
tp844
Rp845
(I1
(I0
tp846
g787
I00
g3
tp847
bsg791
(lp848
g3
asg793
g56
(g57
(I0
tp849
g59
tp850
Rp851
(I1
(I0
tp852
g787
I00
g3
tp853
bsg96
g56
(g57
(I0
tp854
g59
tp855
Rp856
(I1
(I0
tp857
g787
I00
g3
tp858
bsg804
g56
(g57
(I0
tp859
g59
tp860
Rp861
(I1
(I0
tp862
g787
I00
g3
tp863
bsg98
g56
(g57
(I0
tp864
g59
tp865
Rp866
(I1
(I0
tp867
g787
I00
g3
tp868
bssg189
(dp869
g94
g56
(g57
(I0
tp870
g59
tp871
Rp872
(I1
(I0
tp873
g787
I00
g3
tp874
bsg791
(lp875
g3
asg793
g56
(g57
(I0
tp876
g59
tp877
Rp878
(I1
(I0
tp879
g787
I00
g3
tp880
bsg96
g56
(g57
(I0
tp881
g59
tp882
Rp883
(I1
(I0
tp884
g787
I00
g3
tp885
bsg804
g56
(g57
(I0
tp886
g59
tp887
Rp888
(I1
(I0
tp889
g787
I00
g3
tp890
bsg98
g56
(g57
(I0
tp891
g59
tp892
Rp893
(I1
(I0
tp894
g787
I00
g3
tp895
bssg190
(dp896
g94
g56
(g57
(I0
tp897
g59
tp898
Rp899
(I1
(I0
tp900
g787
I00
g3
tp901
bsg791
(lp902
g3
asg793
g56
(g57
(I0
tp903
g59
tp904
Rp905
(I1
(I0
tp906
g787
I00
g3
tp907
bsg96
g56
(g57
(I0
tp908
g59
tp909
Rp910
(I1
(I0
tp911
g787
I00
g3
tp912
bsg804
g56
(g57
(I0
tp913
g59
tp914
Rp915
(I1
(I0
tp916
g787
I00
g3
tp917
bsg98
g56
(g57
(I0
tp918
g59
tp919
Rp920
(I1
(I0
tp921
g787
I00
g3
tp922
bssg191
(dp923
g94
g56
(g57
(I0
tp924
g59
tp925
Rp926
(I1
(I0
tp927
g787
I00
g3
tp928
bsg791
(lp929
g3
asg793
g56
(g57
(I0
tp930
g59
tp931
Rp932
(I1
(I0
tp933
g787
I00
g3
tp934
bsg96
g56
(g57
(I0
tp935
g59
tp936
Rp937
(I1
(I0
tp938
g787
I00
g3
tp939
bsg804
g56
(g57
(I0
tp940
g59
tp941
Rp942
(I1
(I0
tp943
g787
I00
g3
tp944
bsg98
g56
(g57
(I0
tp945
g59
tp946
Rp947
(I1
(I0
tp948
g787
I00
g3
tp949
bssg192
(dp950
g94
g56
(g57
(I0
tp951
g59
tp952
Rp953
(I1
(I0
tp954
g787
I00
g3
tp955
bsg791
(lp956
g3
asg793
g56
(g57
(I0
tp957
g59
tp958
Rp959
(I1
(I0
tp960
g787
I00
g3
tp961
bsg96
g56
(g57
(I0
tp962
g59
tp963
Rp964
(I1
(I0
tp965
g787
I00
g3
tp966
bsg804
g56
(g57
(I0
tp967
g59
tp968
Rp969
(I1
(I0
tp970
g787
I00
g3
tp971
bsg98
g56
(g57
(I0
tp972
g59
tp973
Rp974
(I1
(I0
tp975
g787
I00
g3
tp976
bssg193
(dp977
g94
g56
(g57
(I0
tp978
g59
tp979
Rp980
(I1
(I0
tp981
g787
I00
g3
tp982
bsg791
(lp983
g3
asg793
g56
(g57
(I0
tp984
g59
tp985
Rp986
(I1
(I0
tp987
g787
I00
g3
tp988
bsg96
g56
(g57
(I0
tp989
g59
tp990
Rp991
(I1
(I0
tp992
g787
I00
g3
tp993
bsg804
g56
(g57
(I0
tp994
g59
tp995
Rp996
(I1
(I0
tp997
g787
I00
g3
tp998
bsg98
g56
(g57
(I0
tp999
g59
tp1000
Rp1001
(I1
(I0
tp1002
g787
I00
g3
tp1003
bssg194
(dp1004
g94
g56
(g57
(I0
tp1005
g59
tp1006
Rp1007
(I1
(I0
tp1008
g787
I00
g3
tp1009
bsg791
(lp1010
g3
asg793
g56
(g57
(I0
tp1011
g59
tp1012
Rp1013
(I1
(I0
tp1014
g787
I00
g3
tp1015
bsg96
g56
(g57
(I0
tp1016
g59
tp1017
Rp1018
(I1
(I0
tp1019
g787
I00
g3
tp1020
bsg804
g56
(g57
(I0
tp1021
g59
tp1022
Rp1023
(I1
(I0
tp1024
g787
I00
g3
tp1025
bsg98
g56
(g57
(I0
tp1026
g59
tp1027
Rp1028
(I1
(I0
tp1029
g787
I00
g3
tp1030
bssg195
(dp1031
g94
g56
(g57
(I0
tp1032
g59
tp1033
Rp1034
(I1
(I0
tp1035
g787
I00
g3
tp1036
bsg791
(lp1037
g3
asg793
g56
(g57
(I0
tp1038
g59
tp1039
Rp1040
(I1
(I0
tp1041
g787
I00
g3
tp1042
bsg96
g56
(g57
(I0
tp1043
g59
tp1044
Rp1045
(I1
(I0
tp1046
g787
I00
g3
tp1047
bsg804
g56
(g57
(I0
tp1048
g59
tp1049
Rp1050
(I1
(I0
tp1051
g787
I00
g3
tp1052
bsg98
g56
(g57
(I0
tp1053
g59
tp1054
Rp1055
(I1
(I0
tp1056
g787
I00
g3
tp1057
bssg196
(dp1058
g94
g56
(g57
(I0
tp1059
g59
tp1060
Rp1061
(I1
(I0
tp1062
g787
I00
g3
tp1063
bsg791
(lp1064
g3
asg793
g56
(g57
(I0
tp1065
g59
tp1066
Rp1067
(I1
(I0
tp1068
g787
I00
g3
tp1069
bsg96
g56
(g57
(I0
tp1070
g59
tp1071
Rp1072
(I1
(I0
tp1073
g787
I00
g3
tp1074
bsg804
g56
(g57
(I0
tp1075
g59
tp1076
Rp1077
(I1
(I0
tp1078
g787
I00
g3
tp1079
bsg98
g56
(g57
(I0
tp1080
g59
tp1081
Rp1082
(I1
(I0
tp1083
g787
I00
g3
tp1084
bsssb.