(isnclasses
mysn
p0
(dp1
S'camsystem'
p2
S''
p3
sS'dVmax'
p4
F0.1
sS'nomaxdate'
p5
I00
sS'maxcolors'
p6
(dp7
S'V-K'
p8
(dp9
S'color'
p10
Fnan
sS'epoch'
p11
F0.0
sS'dcolor'
p12
Fnan
ssS'V-H'
p13
(dp14
g10
Fnan
sg11
F0.0
sg12
Fnan
ssS'V-I'
p15
(dp16
g10
Fnan
sg11
F0.0
sg12
Fnan
ssS'R-I'
p17
(dp18
g10
Fnan
sg11
F0.0
sg12
Fnan
ssS'V-R'
p19
(dp20
g10
Fnan
sg11
F0.0
sg12
Fnan
ssS'V-i'
p21
(dp22
g10
Fnan
sg11
F0.0
sg12
Fnan
ssS'V-r'
p23
(dp24
g10
Fnan
sg11
F0.0
sg12
Fnan
ssS'B-J'
p25
(dp26
g10
Fnan
sg11
F0.0
sg12
Fnan
ssS'B-K'
p27
(dp28
g10
Fnan
sg11
F0.0
sg12
Fnan
ssS'B-H'
p29
(dp30
g10
Fnan
sg11
F0.0
sg12
Fnan
ssS'B-I'
p31
(dp32
g10
Fnan
sg11
F0.0
sg12
Fnan
ssS'B-R'
p33
(dp34
g10
Fnan
sg11
F0.0
sg12
Fnan
ssS'J-K'
p35
(dp36
g10
Fnan
sg11
F0.0
sg12
Fnan
ssS'B-V'
p37
(dp38
g10
Fnan
sg11
F0.0
sg12
Fnan
ssS'H-J'
p39
(dp40
g10
Fnan
sg11
F0.0
sg12
Fnan
ssS'H-K'
p41
(dp42
g10
Fnan
sg11
F0.0
sg12
Fnan
ssS'r-i'
p43
(dp44
g10
Fnan
sg11
F0.0
sg12
Fnan
ssS'I-H'
p45
(dp46
g10
Fnan
sg11
F0.0
sg12
Fnan
ssS'B-i'
p47
(dp48
g10
Fnan
sg11
F0.0
sg12
Fnan
ssS'B-r'
p49
(dp50
g10
Fnan
sg11
F0.0
sg12
Fnan
ssS'U-B'
p51
(dp52
g10
Fnan
sg11
F0.0
sg12
Fnan
ssS'r-K'
p53
(dp54
g10
Fnan
sg11
F0.0
sg12
Fnan
sssS'colors'
p55
(dp56
g8
(dp57
S'mjd'
p58
(lp59
sS'dmag'
p60
(lp61
sS'mag'
p62
(lp63
ssg13
(dp64
g58
(lp65
sg60
(lp66
sg62
(lp67
ssg15
(dp68
g58
(lp69
sg60
(lp70
sg62
(lp71
ssg17
(dp72
g58
(lp73
sg60
(lp74
sg62
(lp75
ssg19
(dp76
g58
(lp77
sg60
(lp78
sg62
(lp79
ssg21
(dp80
g58
(lp81
sg60
(lp82
sg62
(lp83
ssg23
(dp84
g58
(lp85
sg60
(lp86
sg62
(lp87
ssg25
(dp88
g58
(lp89
sg60
(lp90
sg62
(lp91
ssg27
(dp92
g58
(lp93
sg60
(lp94
sg62
(lp95
ssg29
(dp96
g58
(lp97
sg60
(lp98
sg62
(lp99
ssg31
(dp100
g58
(lp101
sg60
(lp102
sg62
(lp103
ssg33
(dp104
g58
(lp105
sg60
(lp106
sg62
(lp107
ssg35
(dp108
g58
(lp109
sg60
(lp110
sg62
(lp111
ssg37
(dp112
g58
(lp113
sg60
(lp114
sg62
(lp115
ssg39
(dp116
g58
(lp117
sg60
(lp118
sg62
(lp119
ssg41
(dp120
g58
(lp121
sg60
(lp122
sg62
(lp123
ssg43
(dp124
g58
(lp125
sg60
(lp126
sg62
(lp127
ssg45
(dp128
g58
(lp129
sg60
(lp130
sg62
(lp131
ssg47
(dp132
g58
(lp133
sg60
(lp134
sg62
(lp135
ssg49
(dp136
g58
(lp137
sg60
(lp138
sg62
(lp139
ssg51
(dp140
g58
(lp141
sg60
(lp142
sg62
(lp143
ssg53
(dp144
g58
(lp145
sg60
(lp146
sg62
(lp147
sssS'filters'
p148
(dp149
S'B'
p150
I0
sS'I'
p151
I0
sS'H'
p152
I0
sS'K'
p153
I0
sS'J'
p154
I0
sS'i'
p155
I0
sS'R'
p156
I0
sS'u'
p157
I0
sS'V'
p158
I0
sS'U'
p159
I0
sS'r'
p160
I0
ssS'snnameshort'
p161
S'06ep'
p162
sS'templsol'
p163
(dp164
g150
Nsg151
Nsg152
Nsg153
Nsg154
Nsg155
Nsg156
Nsg157
Nsg158
Nsg159
Nsg160
NssS'Vmaxmag'
p165
F0.0
sS'Vmaxflag'
p166
I00
sS'stats'
p167
(dp168
g150
(isnclasses
snstats
p169
(dp170
S'polyrchisq'
p171
F0.0
sS'Rdm15'
p172
F0.0
sS'tlim'
p173
(lp174
F0.0
aF0.0
asS'maglim'
p175
(lp176
F0.0
aF0.0
asS'templresid'
p177
NsS'polyresid'
p178
NsS'dm15'
p179
F0.0
sS'polydeg'
p180
F0.0
sS'success'
p181
I0
sS'flagmiss15'
p182
I0
sS'flagmissmax'
p183
I0
sS'm15data'
p184
(lp185
F0.0
aF0.0
asS'band'
p186
g3
sS'templrchisq'
p187
F0.0
sS'flagbadfit'
p188
I0
sS'Rdm15lin'
p189
(lp190
F0.0
aF0.0
asS'templatefit'
p191
(dp192
S'stretch'
p193
F1.0
sS'yoffset'
p194
F0.0
sS'xoffset'
p195
F0.0
sS'xstretch'
p196
F1.0
ssS'dm15lin'
p197
(lp198
F0.0
aF0.0
asS'maxjd'
p199
(lp200
F0.0
aF0.0
asS'norm'
p201
F0.0
sg193
F0.0
sbsg151
(isnclasses
snstats
p202
(dp203
g171
F0.0
sg172
F0.0
sg173
(lp204
F0.0
aF0.0
asg175
(lp205
F0.0
aF0.0
asg177
Nsg178
Nsg179
F0.0
sg180
F0.0
sg181
I0
sg182
I0
sg183
I0
sg184
(lp206
F0.0
aF0.0
asg186
g3
sg187
F0.0
sg188
I0
sg189
(lp207
F0.0
aF0.0
asg191
(dp208
g193
F1.0
sg194
F0.0
sg195
F0.0
sg196
F1.0
ssg197
(lp209
F0.0
aF0.0
asg199
(lp210
F0.0
aF0.0
asg201
F0.0
sg193
F0.0
sbsg152
(isnclasses
snstats
p211
(dp212
g171
F0.0
sg172
F0.0
sg173
(lp213
F0.0
aF0.0
asg175
(lp214
F0.0
aF0.0
asg177
Nsg178
Nsg179
F0.0
sg180
F0.0
sg181
I0
sg182
I0
sg183
I0
sg184
(lp215
F0.0
aF0.0
asg186
g3
sg187
F0.0
sg188
I0
sg189
(lp216
F0.0
aF0.0
asg191
(dp217
g193
F1.0
sg194
F0.0
sg195
F0.0
sg196
F1.0
ssg197
(lp218
F0.0
aF0.0
asg199
(lp219
F0.0
aF0.0
asg201
F0.0
sg193
F0.0
sbsg153
(isnclasses
snstats
p220
(dp221
g171
F0.0
sg172
F0.0
sg173
(lp222
F0.0
aF0.0
asg175
(lp223
F0.0
aF0.0
asg177
Nsg178
Nsg179
F0.0
sg180
F0.0
sg181
I0
sg182
I0
sg183
I0
sg184
(lp224
F0.0
aF0.0
asg186
g3
sg187
F0.0
sg188
I0
sg189
(lp225
F0.0
aF0.0
asg191
(dp226
g193
F1.0
sg194
F0.0
sg195
F0.0
sg196
F1.0
ssg197
(lp227
F0.0
aF0.0
asg199
(lp228
F0.0
aF0.0
asg201
F0.0
sg193
F0.0
sbsg154
(isnclasses
snstats
p229
(dp230
g171
F0.0
sg172
F0.0
sg173
(lp231
F0.0
aF0.0
asg175
(lp232
F0.0
aF0.0
asg177
Nsg178
Nsg179
F0.0
sg180
F0.0
sg181
I0
sg182
I0
sg183
I0
sg184
(lp233
F0.0
aF0.0
asg186
g3
sg187
F0.0
sg188
I0
sg189
(lp234
F0.0
aF0.0
asg191
(dp235
g193
F1.0
sg194
F0.0
sg195
F0.0
sg196
F1.0
ssg197
(lp236
F0.0
aF0.0
asg199
(lp237
F0.0
aF0.0
asg201
F0.0
sg193
F0.0
sbsg155
(isnclasses
snstats
p238
(dp239
g171
F0.0
sg172
F0.0
sg173
(lp240
F0.0
aF0.0
asg175
(lp241
F0.0
aF0.0
asg177
Nsg178
Nsg179
F0.0
sg180
F0.0
sg181
I0
sg182
I0
sg183
I0
sg184
(lp242
F0.0
aF0.0
asg186
g3
sg187
F0.0
sg188
I0
sg189
(lp243
F0.0
aF0.0
asg191
(dp244
g193
F1.0
sg194
F0.0
sg195
F0.0
sg196
F1.0
ssg197
(lp245
F0.0
aF0.0
asg199
(lp246
F0.0
aF0.0
asg201
F0.0
sg193
F0.0
sbsg156
(isnclasses
snstats
p247
(dp248
g171
F0.0
sg172
F0.0
sg173
(lp249
F0.0
aF0.0
asg175
(lp250
F0.0
aF0.0
asg177
Nsg178
Nsg179
F0.0
sg180
F0.0
sg181
I0
sg182
I0
sg183
I0
sg184
(lp251
F0.0
aF0.0
asg186
g3
sg187
F0.0
sg188
I0
sg189
(lp252
F0.0
aF0.0
asg191
(dp253
g193
F1.0
sg194
F0.0
sg195
F0.0
sg196
F1.0
ssg197
(lp254
F0.0
aF0.0
asg199
(lp255
F0.0
aF0.0
asg201
F0.0
sg193
F0.0
sbsg157
(isnclasses
snstats
p256
(dp257
g171
F0.0
sg172
F0.0
sg173
(lp258
F0.0
aF0.0
asg175
(lp259
F0.0
aF0.0
asg177
Nsg178
Nsg179
F0.0
sg180
F0.0
sg181
I0
sg182
I0
sg183
I0
sg184
(lp260
F0.0
aF0.0
asg186
g3
sg187
F0.0
sg188
I0
sg189
(lp261
F0.0
aF0.0
asg191
(dp262
g193
F1.0
sg194
F0.0
sg195
F0.0
sg196
F1.0
ssg197
(lp263
F0.0
aF0.0
asg199
(lp264
F0.0
aF0.0
asg201
F0.0
sg193
F0.0
sbsg158
(isnclasses
snstats
p265
(dp266
g171
F0.0
sg172
F0.0
sg173
(lp267
F0.0
aF0.0
asg175
(lp268
F0.0
aF0.0
asg177
Nsg178
Nsg179
F0.0
sg180
F0.0
sg181
I0
sg182
I0
sg183
I0
sg184
(lp269
F0.0
aF0.0
asg186
g3
sg187
F0.0
sg188
I0
sg189
(lp270
F0.0
aF0.0
asg191
(dp271
g193
F1.0
sg194
F0.0
sg195
F0.0
sg196
F1.0
ssg197
(lp272
F0.0
aF0.0
asg199
(lp273
F0.0
aF0.0
asg201
F0.0
sg193
F0.0
sbsg159
(isnclasses
snstats
p274
(dp275
g171
F0.0
sg172
F0.0
sg173
(lp276
F0.0
aF0.0
asg175
(lp277
F0.0
aF0.0
asg177
Nsg178
Nsg179
F0.0
sg180
F0.0
sg181
I0
sg182
I0
sg183
I0
sg184
(lp278
F0.0
aF0.0
asg186
g3
sg187
F0.0
sg188
I0
sg189
(lp279
F0.0
aF0.0
asg191
(dp280
g193
F1.0
sg194
F0.0
sg195
F0.0
sg196
F1.0
ssg197
(lp281
F0.0
aF0.0
asg199
(lp282
F0.0
aF0.0
asg201
F0.0
sg193
F0.0
sbsg160
(isnclasses
snstats
p283
(dp284
g171
F0.0
sg172
F0.0
sg173
(lp285
F0.0
aF0.0
asg175
(lp286
F0.0
aF0.0
asg177
Nsg178
Nsg179
F0.0
sg180
F0.0
sg181
I0
sg182
I0
sg183
I0
sg184
(lp287
F0.0
aF0.0
asg186
g3
sg187
F0.0
sg188
I0
sg189
(lp288
F0.0
aF0.0
asg191
(dp289
g193
F1.0
sg194
F0.0
sg195
F0.0
sg196
F1.0
ssg197
(lp290
F0.0
aF0.0
asg199
(lp291
F0.0
aF0.0
asg201
F0.0
sg193
F0.0
sbssS'lc'
p292
cnumpy.core.multiarray
_reconstruct
p293
(cnumpy
ndarray
p294
(I0
tp295
S'b'
p296
tp297
Rp298
(I1
(I90
tp299
cnumpy
dtype
p300
(S'V18'
p301
I0
I1
tp302
Rp303
(I3
S'|'
p304
N(S'photcode'
p305
S'mjd'
p306
S'mag'
p307
S'dmag'
p308
S'ccmag'
p309
tp310
(dp311
g306
(g300
(S'f4'
p312
I0
I1
tp313
Rp314
(I3
S'<'
p315
NNNI-1
I-1
I0
tp316
bI2
tp317
sg309
(g314
I14
tp318
sg307
(g314
I6
tp319
sg305
(g300
(S'S2'
p320
I0
I1
tp321
Rp322
(I3
S'|'
p323
NNNI2
I1
I0
tp324
bI0
tp325
sg308
(g314
I10
tp326
sI18
I1
I16
tp327
bI00
S'02W\xdcRGF\xb6\x91A\x96C\x0b=\xe5\xe1\x91A02j\xe0RG\xb8\x1e\x90A\xe3\xa5\x1b=&S\x90A02o\xe4RG\n\xd7\x91A\x8f\xc2\xf5=\x87\'\x92A02p\xe6RG\'1\x92AL7\x89=\t\x8a\x92A02p\xe8RG\xcfw\x93A\x17\xd9N=\xf8\xd3\x93A02y\xebRGy\xe9\x96A`\xe5P=\x8c[\x97A02v\xedRGq=\x99A\xb2\x9do=\x0e\xbe\x99A02e\xf0RG\xbct\x9cA=\n\xd7=\xc2\x06\x9dA02_\xf2RG\xfe\xd4\x9fA\x9a\x99\x19>\xd2\x80\xa0A02{\xf6RG\xc1\xca\xa1A5^:>\xc3d\xa2A02p\x08SG\\\x8f\xa6A\xcb\xa1\x85>\xe0\x1c\xa7A03V\xdcRGB`\x8eA\xcd\xcc\xcc<\xf5J\x8eA03i\xe0RG\xa0\x1a\x8cA\xd5x\xe9<\xd2\x00\x8cA03l\xe5RG\x1f\x85\x8bA\x7fj\xbc<\x8c[\x8bA03o\xe6RGB`\x8bA\x7fj\xbc<\xa24\x8bA03o\xe8RGmg\x8cA\xecQ\xb8<*:\x8cA03w\xebRG\xf6(\x8eA9\xb4\xc8<\r\xf1\x8dA03u\xedRGB`\x8fAh\x91\xed<-!\x8fA03d\xf0RG\x96C\x91A\x96C\x0b=\xe7\xfb\x90A03^\xf2RG\xf0\xa7\x92A\xbct\x13=\x8fS\x92A03z\xf6RGR\xb8\x96Ah\x91m=vq\x96A03F\xf7RG\x91\xed\x95A\x87\x16Y=-\xa1\x95A03G\xf9RG\xcd\xcc\x96AB`e=\xe4\x83\x96A03C\xfbRG\\\x8f\x97A\xd9\xcew=\x80H\x97A03g\x04SG}?\x9aA\n\xd7\xa3=\x9a\xf7\x99A03R\x05SG\xfe\xd4\x99A\x0e-\xb2=\xce\x88\x99A03n\x08SGF\xb6\x9bA?5\xde=\xd8p\x9bA03N\x0eSG}?\xa0A\xe1z\x14>4\x11\xa0A03%\x1eSG\x12\x03\xa0A\xe1zT>)\xcb\x9fA033$SG\xb4\xc8\xa2A\xd5x)>\x8a\x9f\xa2A03G(SG\x00\x00\xa3Am\xe7;>9\xd6\xa2A03-2SG\xc7K\xa6A\x8d\x97n>-2\xa6A03*<SG\'\xb1\xa4A!\xb0r>\xc8\x87\xa4A03!ASG\xc1\xca\xa7Ad;_>a\xb2\xa7A033NSG/\xdd\xa6A`\xe5P>\x02\xbc\xa6A13V\xdcRG\xbaI\x8dAX9\xb4<?F\x8dA13i\xe0RGw\xbe\x8aA\xe3\xa5\x9b<\xfb\xba\x8aA13o\xe6RG\xb8\x1e\x8aA1\x08\xac<\x94\x07\x8aA13o\xe8RGZ\xe4\x89A\xe3\xa5\x9b<B\xe0\x89A13w\xebRG\xcf\xf7\x8aAw\xbe\x9f<\x1f\xf4\x8aA13u\xedRG\xa8\xc6\x8bA\n\xd7\xa3<\x8f\xc2\x8bA13d\xf0RGP\x8d\x8dA\x12\x83\xc0<u\x82\x8dA13]\xf2RG\x1dZ\x8eA\x7fj\xbc<0L\x8eA13y\xf6RG?5\x91AB`\xe5<\x1d8\x91A13E\xf7RG\xee|\x91AB`\xe5<>y\x91A13F\xf9RG\xd5x\x92A\x8f\xc2\xf5<\xfdv\x92A13N\xfbRGX9\x94AP\x8d\x17=_)\x94A13Y\x02SG\x9a\x99\x95A\xe3\xa5\x1b=\xe0\x9c\x95A13[\x03SG/]\x95A\xc1\xca!=2f\x95A13f\x04SG\xf2R\x96A\x0e-2=^K\x96A13R\x05SG\x87\x96\x95A\x9e\xef\'=\xfc\x98\x95A13m\x08SG\xfeT\x97A\xf0\xa7F=?W\x97A13M\x0eSGff\x99A\xfc\xa9q=X\xa8\x99A13$\x1eSG\'\xb1\x9bA\x83\xc0\xca=\xe6\xbf\x9bA132$SGw\xbe\x9bA\x9a\x99\x99=\x9a\x08\x9cA13F(SG\x81\x95\x9cA\x9e\xef\xa7=\xca\xd4\x9cA13,2SG\x87\x16\x9fA\xf4\xfd\xd4=d]\x9fA13)<SG\xc3\xf5\x9fA#\xdb\xf9=\x0b5\xa0A13\x1d@SG+\x07\xa0A\xc7K\xb7=5^\xa0A13 ASG\x10X\x9fAH\xe1\xfa=\xe3\xb6\x9fA132NSG\xd3M\xa0A\xd3M">\xf6\x97\xa0A13"OSG!0\xa1AB`%>io\xa1A14U\xdcRG\xdb\xf9\x8cA\x12\x83\xc0<\x85\xeb\x8cA14h\xe0RG\xaaq\x8aAX9\xb4<B`\x8aA14n\xe6RG\x83\xc0\x88A\x12\x83\xc0<\xcb\xa1\x88A14n\xe8RG{\x14\x89A\xe3\xa5\x9b<8\xf8\x88A14v\xebRG\xd3M\x89A\n\xd7\xa3<O/\x89A14t\xedRG\x02+\x8aA\n\xd7\xa3<\xf7\x06\x8aA14c\xf0RG\x7f\xea\x8aA\xc5 \xb0<3\xc4\x8aA14\\\xf2RG\x0c\x02\x8cA\x12\x83\xc0<\x14\xd0\x8bA14x\xf6RG-2\x8eA\x87\x16\xd9<b\x10\x8eA14D\xf7RG\xb8\x9e\x8eA\x87\x16\xd9<\ty\x8eA14F\xf9RG\x1dZ\x8fAB`\xe5<$9\x8fA14J\xfbRG#[\x90A%\x06\x01=\xfb:\x90A14\\\x02SG\x89A\x92Aw\xbe\x1f=\x81&\x92A14[\x03SG-\xb2\x91A\xdfO\r=k\x9a\x91A14e\x04SG\xa4p\x93AT\xe3%=\x01M\x93A14Q\x05SGX9\x92A\x06\x81\x15=\xd4\x1a\x92A14m\x08SG\xfc\xa9\x93A1\x08,=.\x90\x93A14L\x0eSG{\x94\x94A\x7fj<=\xf6\xa8\x94A14#\x1eSG\x7f\xea\x97A\xa6\x9b\xc4=p\xdf\x97A142$SG!\xb0\x96A\x1f\x85k=\x98\xcc\x96A14E(SGF6\x99A\xbe\x9f\x9a=gD\x99A14+2SG\xfa~\x9aA}?\xb5=\x1b\x9e\x9aA14)<SG\x8f\xc2\x9bA;\xdf\xcf=#\xdb\x9bA14(>SGH\xe1\x9aA;\xdfO>+\x07\x9bA14\x1c@SGm\xe7\x9cA\xaa\xf1\xd2=\xf0\x05\x9dA14\x1fASG\x8f\xc2\x9cA5^\xba=\xd9\xdf\x9cA142NSGL7\x9eA\x12\x83\xc0=\xaeG\x9eA14"OSGT\xe3\x9dAF\xb6\xf3=\xcf\xf7\x9dA'
p328
tp329
bsS'Rmax'
p330
(dp331
sS'polyfit'
p332
NsS'ebmvtot'
p333
F0.0
sS'Vmax'
p334
F2453988.58
sS'type'
p335
S'Ib'
p336
sS'metadata'
p337
(dp338
g3
S'1.046'
p339
sS'cfaUmaxerr'
p340
S'-'
p341
sS'v2 Fe II 5169 date'
p342
S'8.1'
p343
sS'D11Rmax'
p344
g3
sS'v_z'
p345
S'4505'
p346
sS'E(b-v)hosterr'
p347
S'--'
p348
sS'v1 Fe II 5018 date'
p349
g341
sS'cfaRmaxerr'
p350
S'0.02'
p351
sS'CfA RJD bootstrap'
p352
S'53990.1'
p353
sS'inclination from axes sdss'
p354
S'48.610397436194'
p355
sS'my E(B-V)host from inclination'
p356
S'0.210620946227782'
p357
sS'RA'
p358
S'0:41:24'
p359
sS'cfaVmaxerr'
p360
S'0.02'
p361
sS'Dm15 (with Lyman BC correction)'
p362
S'2.0930219419'
p363
sS'CfA E(B-V)host'
p364
S'0.446'
p365
sS'lcvquality'
p366
S'1'
p367
sS'v1 Fe II 5169 '
p368
S'-12001.2'
p369
sS'decdeg'
p370
S'25.4963055556'
p371
sS'cfaVmax'
p372
S'17.4'
p373
sS'CfA VJD bootstrap error'
p374
S'0.1'
p375
sS'MaxVJD'
p376
S'2453988'
p377
sS'D11Vmaxdate'
p378
g3
sS'v1 Fe II 5018 '
p379
g341
sS'D11Rmaxdate'
p380
g3
sS'D11Rmaxerr'
p381
g3
sS'Fe II 5169 at maximum (linear interpolation error)'
p382
S'2508.55585746062'
p383
sS'D11Vmaxerr'
p384
g3
sS'axis ratio sdss'
p385
S'0.714'
p386
sS'D11Rmaxdateerr'
p387
g3
sS'v2 FeII 5018 date'
p388
g341
sS'DEC'
p389
S'+25:29:46.7'
p390
sS'Type'
p391
g336
sS'cfaJmaxerr'
p392
g341
sS'SNname'
p393
S'sn2006ep'
p394
sS'Fe II 5169 at maximum (linear interpolation)'
p395
S'-9800.15'
p396
sS'inclination'
p397
S'--'
p398
sS'cfaHmaxerr'
p399
g341
sS'DFS E(B-V)'
p400
S'0.036'
p401
sS'image subtraction needed'
p402
S'N'
p403
sS'CfA BJD bootstrap'
p404
S'53984.96'
p405
sS'v1 Fe II 5169 date'
p406
S'-8'
p407
sS' CfA E(B-V)hosterr'
p408
S'0.095'
p409
sS'v2 Fe II 5018'
p410
g341
sS'P13 UV data'
p411
S'0'
p412
sS'cfaHmax'
p413
g3
sS'v2 Fe II 5169 error'
p414
S'1684'
p415
sS'CfA IJD bootstrap'
p416
S'<0000000'
p417
sS'cfaKmax'
p418
g341
sS'comment'
p419
S';dm15=0.92'
p420
sS'dVJD CfA bootstrap'
p421
S'-0.580000000074506'
p422
sS'radeg'
p423
S'10.35'
p424
sS'distance Mpc'
p425
S'65.1522279505'
p426
sS'inclination error'
p427
S'--'
p428
sS'PAIRITEL'
p429
g412
sS'cfaImax'
p430
S'17.1'
p431
sS'Fe II 5169 new'
p432
g3
sS'cfaBmaxerr'
p433
S'0.05'
p434
sS'v2 Fe II 5018 error'
p435
g341
sS'E(b-v)host'
p436
S'--'
p437
sS'CfA photometric quality (1best, 3 worst)'
p438
g367
sS'inclination/E(B-V) ref'
p439
S'--'
p440
sS'cfaBmax'
p441
S'18.07'
p442
sS'CfA IJD error'
p443
S'<0000000'
p444
sS'D11Vmaxdateerr'
p445
g3
sS'CfA dm15'
p446
S'-0.681'
p447
sS'Fe II 5018 at maximum (linear interpolation)'
p448
g341
sS'CfA BJD error'
p449
S'0.23'
p450
sS'earliestV'
p451
S'--'
p452
sS'inclination from leida'
p453
S'--'
p454
sS'CfA dm15 linear'
p455
S'-0.718'
p456
sS'z'
p457
S'0.015027'
p458
sS'cfaImaxerr'
p459
S'0.02'
p460
sS'cfaJmax'
p461
g3
sS'max_ref'
p462
S'CfA'
p463
sS'v2 Fe II 5169'
p464
S'-7571.4'
p465
sS'FeII51691or2'
p466
S'-9786.3'
p467
sS'CfA VJD bootstrap'
p468
S'2453988.58'
p469
sS'v1 Fe II 5018 error'
p470
g341
sS'MaxVdate'
p471
S'20060909.95'
p472
sS'z_ref'
p473
S'UZC'
p474
sS'D11Vmax'
p475
g3
sS'distanced11'
p476
S'--'
p477
sS'separation '
p478
g341
sS'hostgal'
p479
S'NGC214'
p480
sS'E(B-V)'
p481
S'--'
p482
sS'inclination from axes'
p483
S'46.3293159357838'
p484
sS'CfA RJD error'
p485
S'0.11'
p486
sS'cfaKmaxerr'
p487
g341
sS'axis ratio'
p488
S'0.740268931351734'
p489
sS'MaxVMag'
p490
S'17.4'
p491
sS'cfaRmax'
p492
S'17.23'
p493
sS'v1 Fe II 5169 error'
p494
S'1859.3'
p495
sS'E(B-V) SF2011'
p496
S'0.031'
p497
sS'cfaUmax'
p498
g341
ssS'fnir'
p499
Nsg183
I00
sS'polysol'
p500
(dp501
g150
Nsg151
Nsg152
Nsg153
Nsg154
Nsg155
Nsg156
Nsg157
Nsg158
Nsg159
Nsg160
NssS'nir'
p502
I00
sS'maxmags'
p503
(dp504
g150
(dp505
g11
F0.0
sg60
Fnan
sg62
Fnan
ssg151
(dp506
g11
F0.0
sg60
Fnan
sg62
Fnan
ssg152
(dp507
g11
F0.0
sg60
Fnan
sg62
Fnan
ssg153
(dp508
g11
F0.0
sg60
Fnan
sg62
Fnan
ssg154
(dp509
g11
F0.0
sg60
Fnan
sg62
Fnan
ssg155
(dp510
g11
F0.0
sg60
Fnan
sg62
Fnan
ssg156
(dp511
g11
F0.0
sg60
Fnan
sg62
Fnan
ssg157
(dp512
g11
F0.0
sg60
Fnan
sg62
Fnan
ssg158
(dp513
g11
F0.0
sg60
Fnan
sg62
Fnan
ssg159
(dp514
g11
F0.0
sg60
Fnan
sg62
Fnan
ssg160
(dp515
g11
F0.0
sg60
Fnan
sg62
Fnan
sssS'snspline'
p516
(dp517
g150
Nsg151
Nsg152
Nsg153
Nsg154
Nsg155
Nsg156
Nsg157
Nsg158
Nsg159
Nsg160
NssS'pipeline'
p518
S'CfA4'
p519
sS'name'
p520
S'sn2006ep'
p521
sS'solution'
p522
(dp523
g150
(dp524
S'resid'
p525
NsS'pars'
p526
NsS'sol'
p527
NsS'deg'
p528
Nssg151
(dp529
g525
Nsg526
Nsg527
Nsg528
Nssg152
(dp530
g525
Nsg526
Nsg527
Nsg528
Nssg153
(dp531
g525
Nsg526
Nsg527
Nsg528
Nssg154
(dp532
g525
Nsg526
Nsg527
Nsg528
Nssg155
(dp533
g525
Nsg526
Nsg527
Nsg528
Nssg156
(dp534
g525
Nsg526
Nsg527
Nsg528
Nssg157
(dp535
g525
Nsg526
Nsg527
Nsg528
Nssg158
(dp536
g525
Nsg526
Nsg527
Nsg528
Nssg159
(dp537
g525
Nsg526
Nsg527
Nsg528
Nssg160
(dp538
g525
Nsg526
Nsg527
Nsg528
NsssS'su'
p539
(itemplutils
setupvars
p540
(dp541
S'photcodes'
p542
(dp543
g150
(S'02'
p544
S'07'
p545
tp546
sg151
(S'05'
p547
S'0a'
p548
tp549
sg152
(g152
g152
tp550
sg153
(g153
g153
tp551
sg154
(g154
g154
tp552
sg156
(S'04'
p553
S'09'
p554
tp555
sg159
(S'01'
p556
S'06'
p557
tp558
sg158
(S'03'
p559
S'08'
p560
tp561
sg155
(S'14'
p562
S'0c'
p563
tp564
sg160
(S'13'
p565
S'0b'
p566
tp567
sg157
(S'15'
p568
g568
tp569
ssS'mysymbols'
p570
(dp571
S'Ic-bl'
p572
S'v'
p573
sS'other'
p574
S'x'
p575
sS'IIb'
p576
S'^'
p577
sS'IIb-n'
p578
S'>'
p579
sS'Ic'
p580
S's'
p581
sS'Ib'
p582
S'o'
p583
ssS'bandsnonir'
p584
(lp585
g159
ag157
ag150
ag158
ag156
ag151
ag160
ag155
asS'ebmvcfa'
p586
(dp587
S'07gr'
p588
F0.0462
sS'09iz'
p589
F0.064
sS'04aw'
p590
F0.352
sS'06aj'
p591
F0.141
sS'07ag'
p592
F0.627
sS'02ap'
p593
F0.03
sS'05kl'
p594
F1.344
sS'08bo'
p595
F0.294
sS'06lv'
p596
F0.574
sS'05kz'
p597
F0.437
sS'06F'
p598
F0.533
sS'07uy'
p599
F0.378
sS'08D'
p600
F0.572
sS'05bf'
p601
F0.05
sS'09jf'
p602
F0.045
sS'06bf'
p603
F0.368
sS'06fo'
p604
F0.201
sS'05mf'
p605
F0.231
sS'06T'
p606
F0.397
sS'07ce'
p607
F0.082
sS'07ru'
p608
F0.01
sS'03jd'
p609
F0.1
sS'07cl'
p610
F0.258
sS'09er'
p611
F0.11
sS'06el'
p612
F0.147
sS'06ep'
p613
F0.448
sS'07kj'
p614
F0.295
sS'07C'
p615
F0.65
sS'05hg'
p616
F0.244
ssS'insts'
p617
(lp618
S'shooter'
p619
aS'kepler'
p620
aS'mini'
p621
asS'mycolors'
p622
(dp623
g150
S'#0066cc'
p624
sg151
S'm'
p625
sg152
S'#FFB700'
p626
sg153
S'#A4A4A4'
p627
sg154
S'#4F088A'
p628
sg156
S'#b20000'
p629
sg159
S'k'
p630
sg158
S'#47b56c'
p631
sg155
g625
sg160
g629
sg157
g630
ssS'bands'
p632
(lp633
g159
ag157
ag150
ag158
ag156
ag151
ag160
ag155
ag154
ag152
ag153
asS'mylines'
p634
(dp635
g572
S'dotted'
p636
sg574
S'solid'
p637
sg576
g637
sg578
g637
sg580
g637
sg582
S'dashed'
p638
ssS'mytypecolors'
p639
(dp640
g572
g160
sg574
g630
sg576
S'g'
p641
sg578
S'y'
p642
sg580
g296
sg582
g630
ssS'mycolorcolors'
p643
(dp644
g45
S'#9999EE'
p645
sg33
S'#0B0B3B'
p646
sg43
g629
sg8
S'SlateBlue'
p647
sg13
g645
sg15
g625
sg23
g631
sg21
g625
sg49
g646
sg35
S'#70B8FF'
p648
sg31
g646
sg47
g646
sg37
g624
sg39
S'#FFCC80'
p649
sg51
g630
sg53
S'purple'
p650
sg41
g649
sg17
g629
sg19
g631
ssS'AonEBmV'
p651
(dp652
S'm2'
p653
F4.3
sg150
F4.315
sS'w1'
p654
F4.3
sg151
F1.94
sg152
F0.576
sg153
F0.367
sg154
F0.902
sg155
F2.086
sg156
F2.673
sg159
F5.434
sS'w2'
p655
F4.3
sS'vv'
p656
F3.315
sg158
F3.315
sg157
F5.155
sS'uu'
p657
F5.155
sg160
F2.751
ssS'instcodes'
p658
(dp659
g621
I1
sg620
I0
sg619
I0
ssS'ebmvs'
p660
(dp661
S'04ge'
p662
F0.0754
sS'04gk'
p663
F0.0247
sS'07aw'
p664
F0.0338
sS'04gt'
p665
F0.0398
sS'06gi'
p666
F0.0205
sS'04gv'
p667
F0.0286
sS'04gq'
p668
F0.0627
sg592
F0.025
sg605
F0.0153
sS'97dq'
p669
F0.0382
sS'05ek'
p670
F0.1811
sS'05eo'
p671
F0.0585
sS'98fa'
p672
F0.0382
sS'01ej'
p673
F0.046
sS'93J'
p674
F0.069
sg604
F0.025
sS'05nb'
p675
F0.032
sS'06ir'
p676
F0.0393
sS'09K'
p677
F0.0491
sS'04ff'
p678
F0.0281
sS'04fe'
p679
F0.021
sS'04ao'
p680
F0.0893
sg590
F0.018
sg594
F0.0219
sg596
F0.0245
sS'06ck'
p681
F0.0245
sS'05kf'
p682
F0.0378
sS'07hb'
p683
F0.0518
sg597
F0.046
sS'06ld'
p684
F0.0144
sS'06lc'
p685
F0.0556
sS'05da'
p686
F0.2483
sS'08hh'
p687
F0.0427
sg606
F0.0647
sS'07iq'
p688
F0.1182
sg611
F0.0389
sS'97ef'
p689
F0.0366
sS'96cb'
p690
F0.0262
sg589
F0.0729
sS'05az'
p691
F0.0097
sS'06cb'
p692
F0.0094
sS'05ar'
p693
F0.0394
sg595
F0.0513
sS'07bg'
p694
F0.0179
sS'01ai'
p695
F0.0081
sS'06jc'
p696
F0.0173
sS'06ss'
p697
F0.0178
sg598
F0.1635
sg599
F0.0194
sg601
F0.0385
sS'02ji'
p698
F0.0217
sS'97X'
p699
F0.0237
sg602
F0.0971
sg603
F0.0216
sS'06ba'
p700
F0.0452
sS'08an'
p701
F0.045
sg607
F0.02
sg608
F0.2254
sg609
F0.0784
sg610
F0.037
sS'07rz'
p702
F0.1723
sg612
F0.0973
sg613
F0.031
sg614
F0.0691
sS'08ax'
p703
F0.0186
sS'05U'
p704
F0.0143
sS'07ke'
p705
F0.0954
sS'08aq'
p706
F0.0383
sg588
F0.0535
sS'05la'
p707
F0.01
sS'94I'
p708
F0.0302
sS'95bb'
p709
F0.0948
sg591
F0.1267
sg593
F0.062
sS'98dt'
p710
F0.0219
sS'04eu'
p711
F0.0466
sS'00H'
p712
F0.1964
sS'01gd'
p713
F0.0098
sS'04dn'
p714
F0.0415
sg600
F0.0194
sS'95F'
p715
F0.0311
sS'08cw'
p716
F0.006
sS'07D'
p717
F0.2881
sg615
F0.0363
sg616
F0.0901
sS'04dk'
p718
F0.1357
sS'07I'
p719
F0.025
ssS'ebmvhost'
p720
(dp721
g588
F0.038
sg593
F0.03
sg608
F0.01
sg609
F0.1
sg590
F0.352
sg703
F0.4
sg600
F0.5406
ssS'cs'
p722
(dp723
g8
I13
sg13
I8
sg15
I7
sg17
I3
sg19
I2
sg21
I6
sg23
I5
sg25
I16
sg27
I18
sg29
I17
sg31
I11
sg33
I19
sg35
I10
sg37
I1
sg39
I9
sg41
I14
sg43
I4
sg45
I9
sg47
I11
sg49
I15
sg51
I0
sg53
I12
ssS'bandsindex'
p724
(dp725
g150
I1
sg151
I4
sg152
I8
sg153
I9
sg154
I7
sg156
I3
sg159
I0
sg158
I2
sg155
I6
sg160
I5
sg157
I0
ssS'bandsnir'
p726
(lp727
g154
ag152
ag153
asS'myshapes'
p728
(dp729
g150
g581
sg151
g579
sg152
g581
sg153
g583
sg154
g577
sg156
g573
sg159
g577
sg158
g583
sg155
S'h'
p730
sg160
S'd'
p731
sg157
g577
ssS'types'
p732
(lp733
g582
ag580
ag576
ag572
ag578
asS'cbands'
p734
(lp735
g51
ag47
ag31
ag37
ag19
ag17
ag43
ag23
ag21
ag15
ag13
ag53
ag8
ag41
ag49
ag25
ag29
ag27
aS'H-i'
p736
aS'J-H'
p737
aS'K-J'
p738
asbsS'n'
p739
NsS'dr15'
p740
F0.0
sS'photometry'
p741
(dp742
g150
(dp743
g58
g293
(g294
(I0
tp744
g296
tp745
Rp746
(I1
(I0
tp747
g300
(S'f8'
p748
I0
I1
tp749
Rp750
(I3
S'<'
p751
NNNI-1
I-1
I0
tp752
bI00
g3
tp753
bsS'camsys'
p754
(lp755
g3
asS'natmag'
p756
g293
(g294
(I0
tp757
g296
tp758
Rp759
(I1
(I0
tp760
g750
I00
g3
tp761
bsg60
g293
(g294
(I0
tp762
g296
tp763
Rp764
(I1
(I0
tp765
g750
I00
g3
tp766
bsS'extmag'
p767
g293
(g294
(I0
tp768
g296
tp769
Rp770
(I1
(I0
tp771
g750
I00
g3
tp772
bsg62
g293
(g294
(I0
tp773
g296
tp774
Rp775
(I1
(I0
tp776
g750
I00
g3
tp777
bssg151
(dp778
g58
g293
(g294
(I0
tp779
g296
tp780
Rp781
(I1
(I0
tp782
g750
I00
g3
tp783
bsg754
(lp784
g3
asg756
g293
(g294
(I0
tp785
g296
tp786
Rp787
(I1
(I0
tp788
g750
I00
g3
tp789
bsg60
g293
(g294
(I0
tp790
g296
tp791
Rp792
(I1
(I0
tp793
g750
I00
g3
tp794
bsg767
g293
(g294
(I0
tp795
g296
tp796
Rp797
(I1
(I0
tp798
g750
I00
g3
tp799
bsg62
g293
(g294
(I0
tp800
g296
tp801
Rp802
(I1
(I0
tp803
g750
I00
g3
tp804
bssg152
(dp805
g58
g293
(g294
(I0
tp806
g296
tp807
Rp808
(I1
(I0
tp809
g750
I00
g3
tp810
bsg754
(lp811
g3
asg756
g293
(g294
(I0
tp812
g296
tp813
Rp814
(I1
(I0
tp815
g750
I00
g3
tp816
bsg60
g293
(g294
(I0
tp817
g296
tp818
Rp819
(I1
(I0
tp820
g750
I00
g3
tp821
bsg767
g293
(g294
(I0
tp822
g296
tp823
Rp824
(I1
(I0
tp825
g750
I00
g3
tp826
bsg62
g293
(g294
(I0
tp827
g296
tp828
Rp829
(I1
(I0
tp830
g750
I00
g3
tp831
bssg153
(dp832
g58
g293
(g294
(I0
tp833
g296
tp834
Rp835
(I1
(I0
tp836
g750
I00
g3
tp837
bsg754
(lp838
g3
asg756
g293
(g294
(I0
tp839
g296
tp840
Rp841
(I1
(I0
tp842
g750
I00
g3
tp843
bsg60
g293
(g294
(I0
tp844
g296
tp845
Rp846
(I1
(I0
tp847
g750
I00
g3
tp848
bsg767
g293
(g294
(I0
tp849
g296
tp850
Rp851
(I1
(I0
tp852
g750
I00
g3
tp853
bsg62
g293
(g294
(I0
tp854
g296
tp855
Rp856
(I1
(I0
tp857
g750
I00
g3
tp858
bssg154
(dp859
g58
g293
(g294
(I0
tp860
g296
tp861
Rp862
(I1
(I0
tp863
g750
I00
g3
tp864
bsg754
(lp865
g3
asg756
g293
(g294
(I0
tp866
g296
tp867
Rp868
(I1
(I0
tp869
g750
I00
g3
tp870
bsg60
g293
(g294
(I0
tp871
g296
tp872
Rp873
(I1
(I0
tp874
g750
I00
g3
tp875
bsg767
g293
(g294
(I0
tp876
g296
tp877
Rp878
(I1
(I0
tp879
g750
I00
g3
tp880
bsg62
g293
(g294
(I0
tp881
g296
tp882
Rp883
(I1
(I0
tp884
g750
I00
g3
tp885
bssg155
(dp886
g58
g293
(g294
(I0
tp887
g296
tp888
Rp889
(I1
(I0
tp890
g750
I00
g3
tp891
bsg754
(lp892
g3
asg756
g293
(g294
(I0
tp893
g296
tp894
Rp895
(I1
(I0
tp896
g750
I00
g3
tp897
bsg60
g293
(g294
(I0
tp898
g296
tp899
Rp900
(I1
(I0
tp901
g750
I00
g3
tp902
bsg767
g293
(g294
(I0
tp903
g296
tp904
Rp905
(I1
(I0
tp906
g750
I00
g3
tp907
bsg62
g293
(g294
(I0
tp908
g296
tp909
Rp910
(I1
(I0
tp911
g750
I00
g3
tp912
bssg156
(dp913
g58
g293
(g294
(I0
tp914
g296
tp915
Rp916
(I1
(I0
tp917
g750
I00
g3
tp918
bsg754
(lp919
g3
asg756
g293
(g294
(I0
tp920
g296
tp921
Rp922
(I1
(I0
tp923
g750
I00
g3
tp924
bsg60
g293
(g294
(I0
tp925
g296
tp926
Rp927
(I1
(I0
tp928
g750
I00
g3
tp929
bsg767
g293
(g294
(I0
tp930
g296
tp931
Rp932
(I1
(I0
tp933
g750
I00
g3
tp934
bsg62
g293
(g294
(I0
tp935
g296
tp936
Rp937
(I1
(I0
tp938
g750
I00
g3
tp939
bssg157
(dp940
g58
g293
(g294
(I0
tp941
g296
tp942
Rp943
(I1
(I0
tp944
g750
I00
g3
tp945
bsg754
(lp946
g3
asg756
g293
(g294
(I0
tp947
g296
tp948
Rp949
(I1
(I0
tp950
g750
I00
g3
tp951
bsg60
g293
(g294
(I0
tp952
g296
tp953
Rp954
(I1
(I0
tp955
g750
I00
g3
tp956
bsg767
g293
(g294
(I0
tp957
g296
tp958
Rp959
(I1
(I0
tp960
g750
I00
g3
tp961
bsg62
g293
(g294
(I0
tp962
g296
tp963
Rp964
(I1
(I0
tp965
g750
I00
g3
tp966
bssg158
(dp967
g58
g293
(g294
(I0
tp968
g296
tp969
Rp970
(I1
(I0
tp971
g750
I00
g3
tp972
bsg754
(lp973
g3
asg756
g293
(g294
(I0
tp974
g296
tp975
Rp976
(I1
(I0
tp977
g750
I00
g3
tp978
bsg60
g293
(g294
(I0
tp979
g296
tp980
Rp981
(I1
(I0
tp982
g750
I00
g3
tp983
bsg767
g293
(g294
(I0
tp984
g296
tp985
Rp986
(I1
(I0
tp987
g750
I00
g3
tp988
bsg62
g293
(g294
(I0
tp989
g296
tp990
Rp991
(I1
(I0
tp992
g750
I00
g3
tp993
bssg159
(dp994
g58
g293
(g294
(I0
tp995
g296
tp996
Rp997
(I1
(I0
tp998
g750
I00
g3
tp999
bsg754
(lp1000
g3
asg756
g293
(g294
(I0
tp1001
g296
tp1002
Rp1003
(I1
(I0
tp1004
g750
I00
g3
tp1005
bsg60
g293
(g294
(I0
tp1006
g296
tp1007
Rp1008
(I1
(I0
tp1009
g750
I00
g3
tp1010
bsg767
g293
(g294
(I0
tp1011
g296
tp1012
Rp1013
(I1
(I0
tp1014
g750
I00
g3
tp1015
bsg62
g293
(g294
(I0
tp1016
g296
tp1017
Rp1018
(I1
(I0
tp1019
g750
I00
g3
tp1020
bssg160
(dp1021
g58
g293
(g294
(I0
tp1022
g296
tp1023
Rp1024
(I1
(I0
tp1025
g750
I00
g3
tp1026
bsg754
(lp1027
g3
asg756
g293
(g294
(I0
tp1028
g296
tp1029
Rp1030
(I1
(I0
tp1031
g750
I00
g3
tp1032
bsg60
g293
(g294
(I0
tp1033
g296
tp1034
Rp1035
(I1
(I0
tp1036
g750
I00
g3
tp1037
bsg767
g293
(g294
(I0
tp1038
g296
tp1039
Rp1040
(I1
(I0
tp1041
g750
I00
g3
tp1042
bsg62
g293
(g294
(I0
tp1043
g296
tp1044
Rp1045
(I1
(I0
tp1046
g750
I00
g3
tp1047
bsssb.