(isnclasses
mysn
p0
(dp1
S'camsystem'
p2
S''
p3
sS'dVmax'
p4
F0.75
sS'nomaxdate'
p5
I00
sS'maxcolors'
p6
(dp7
S'V-K'
p8
(dp9
S'color'
p10
Fnan
sS'epoch'
p11
F0.0
sS'dcolor'
p12
Fnan
ssS'V-H'
p13
(dp14
g10
Fnan
sg11
F0.0
sg12
Fnan
ssS'V-I'
p15
(dp16
g10
Fnan
sg11
F0.0
sg12
Fnan
ssS'R-I'
p17
(dp18
g10
Fnan
sg11
F0.0
sg12
Fnan
ssS'V-R'
p19
(dp20
g10
Fnan
sg11
F0.0
sg12
Fnan
ssS'V-i'
p21
(dp22
g10
Fnan
sg11
F0.0
sg12
Fnan
ssS'V-r'
p23
(dp24
g10
Fnan
sg11
F0.0
sg12
Fnan
ssS'B-J'
p25
(dp26
g10
Fnan
sg11
F0.0
sg12
Fnan
ssS'B-K'
p27
(dp28
g10
Fnan
sg11
F0.0
sg12
Fnan
ssS'B-H'
p29
(dp30
g10
Fnan
sg11
F0.0
sg12
Fnan
ssS'B-I'
p31
(dp32
g10
Fnan
sg11
F0.0
sg12
Fnan
ssS'B-R'
p33
(dp34
g10
Fnan
sg11
F0.0
sg12
Fnan
ssS'J-K'
p35
(dp36
g10
Fnan
sg11
F0.0
sg12
Fnan
ssS'B-V'
p37
(dp38
g10
Fnan
sg11
F0.0
sg12
Fnan
ssS'H-J'
p39
(dp40
g10
Fnan
sg11
F0.0
sg12
Fnan
ssS'H-K'
p41
(dp42
g10
Fnan
sg11
F0.0
sg12
Fnan
ssS'r-i'
p43
(dp44
g10
Fnan
sg11
F0.0
sg12
Fnan
ssS'I-H'
p45
(dp46
g10
Fnan
sg11
F0.0
sg12
Fnan
ssS'B-i'
p47
(dp48
g10
Fnan
sg11
F0.0
sg12
Fnan
ssS'B-r'
p49
(dp50
g10
Fnan
sg11
F0.0
sg12
Fnan
ssS'U-B'
p51
(dp52
g10
Fnan
sg11
F0.0
sg12
Fnan
ssS'r-K'
p53
(dp54
g10
Fnan
sg11
F0.0
sg12
Fnan
sssS'nirlc'
p55
cnumpy.core.multiarray
_reconstruct
p56
(cnumpy
ndarray
p57
(I0
tp58
S'b'
p59
tp60
Rp61
(I1
(I68
tp62
cnumpy
dtype
p63
(S'V13'
p64
I0
I1
tp65
Rp66
(I3
S'|'
p67
N(S'photcode'
p68
S'mjd'
p69
S'mag'
p70
S'dmag'
p71
tp72
(dp73
g69
(g63
(S'f4'
p74
I0
I1
tp75
Rp76
(I3
S'<'
p77
NNNI-1
I-1
I0
tp78
bI1
tp79
sg70
(g76
I5
tp80
sg68
(g63
(S'S1'
p81
I0
I1
tp82
Rp83
(I3
S'|'
p84
NNNI1
I1
I0
tp85
bI0
tp86
sg71
(g76
I9
tp87
sI13
I1
I16
tp88
bI00
S"J6\xfdPG\xdfOyA\x87\x16Y=J.\xfePG\xbct{A\xa6\x9bD=J3\xffPG\xd7\xa3xAX94=J3\x00QG\x87\x16yA)\\\x0f=J.\x02QG5^zAB`\xe5<J3\x05QG\xdfO}AX94=J8\x06QG\xf4\xfd~Ah\x91m=J8\x07QGV\x0e\x7fA\x7fj<=J.\x08QG\xe9&\x81A\x00\x00\x80>J.\tQGd;\x7fAw\xbe\x1f=J;\nQG\xfa~~A333>J.\x0bQG\xfe\xd4~A\x1b/]=J,\x0cQG\x0e-\x80A333>J,\x11QG\xe9&\x82A\xcd\xccL=J,\x12QG}?\x81A\xc9v\xbe=J,\x14QG}?\x82A-\xb2\x9d=J,\x15QG\xb8\x1e\x82A\xc1\xca\xa1=J)\x16QG\x89A\x83A\xc9v\xbe=J.\x17QG\xb2\x9d\x82AX9\xb4=J$\x19QGb\x10\x82A1\x08,=J6,QG\x17\xd9\x8aAo\x12\x03>J1.QGX9\x8cA\x00\x00\x80>J;4QG+\x87\x8dA`\xe5P>H6\xfdPG\x8blsA\n\xd7#=H.\xfePG\x89ArAL7\x89=H3\xffPG\xa6\x9brA\xc1\xca\xa1=H3\x00QG#\xdbsA\x02+\x87=H.\x02QGm\xe7uAh\x91m=H6\x03QG\xbctwA\xf8S\xe3=H3\x05QG\xa4pwA\x9e\xef\xa7=H8\x06QG#\xdbwA)\\\x8f=H8\x07QGZd{A\x06\x81\x95=H.\x08QG{\x14zA%\x06\x01>H.\tQG\x81\x95wAsh\x91=H;\nQG\xb6\xf3wA\x00\x00\x80>H.\x0bQG\x87\x16yA\xecQ8=H,\x0cQG\xfa~xA333>H,\x11QG\x9e\xef{A#\xdby=H,\x12QG\xa6\x9bzA\x00\x00\x80>H,\x13QG\xe9&\x80AB`e=H,\x14QG\x0e-~Ab\x10X>H,\x15QG\xdb\xf9\x80A333>H)\x16QG\x8f\xc2\x80A\x00\x00\x80>H.\x17QGq=~A9\xb4H=H$\x19QGb\x10~A\x96C\x8b=H6,QG\xcd\xcc\x86A\xfc\xa9\xf1=H1.QG\x19\x04\x85A\xe7\xfb\xa9>H;4QGff\x86A\xaeGa=K6\xfdPG\xfa~vA\xf2\xd2M>K.\xfePG\x12\x83xAo\x12\x83=K3\xffPG'1zAh\x91m=K.\x02QG\xa0\x1asA\x8d\x97n>K6\x03QG\xa8\xc6uA333>K3\x05QGNbzA333>K8\x06QGff|A\xcf\xf7S>K8\x07QG-\xb2{A\x00\x00\x80>K.\x08QG\xd5xwA333>K.\tQG\xbe\x9fxA333>K.\x0bQG\x8d\x97zA\xfc\xa9\xf1=K,\x0cQG\x8bl{A333>K,\x11QG/\xdd|A\xb2\x9d\xef=K,\x12QGV\x0e\x80A\x00\x00\x80>K,\x13QG\x85\xeb\x84A\xbct\x13>K,\x15QGy\xe9\x82A\x98n\x12>K)\x16QG\xdd$\x86A%\x06\x01>K.\x17QGsh\x82AF\xb6\xf3=K$\x19QG\x8bl\x85A333>K1.QG!\xb0\x86A\x91\xed|>"
p89
tp90
bsS'colors'
p91
(dp92
g8
(dp93
S'mjd'
p94
(lp95
sS'dmag'
p96
(lp97
sS'mag'
p98
(lp99
ssg13
(dp100
g94
(lp101
sg96
(lp102
sg98
(lp103
ssg15
(dp104
g94
(lp105
sg96
(lp106
sg98
(lp107
ssg17
(dp108
g94
(lp109
sg96
(lp110
sg98
(lp111
ssg19
(dp112
g94
(lp113
sg96
(lp114
sg98
(lp115
ssg21
(dp116
g94
(lp117
sg96
(lp118
sg98
(lp119
ssg23
(dp120
g94
(lp121
sg96
(lp122
sg98
(lp123
ssg25
(dp124
g94
(lp125
sg96
(lp126
sg98
(lp127
ssg27
(dp128
g94
(lp129
sg96
(lp130
sg98
(lp131
ssg29
(dp132
g94
(lp133
sg96
(lp134
sg98
(lp135
ssg31
(dp136
g94
(lp137
sg96
(lp138
sg98
(lp139
ssg33
(dp140
g94
(lp141
sg96
(lp142
sg98
(lp143
ssg35
(dp144
g94
(lp145
sg96
(lp146
sg98
(lp147
ssg37
(dp148
g94
(lp149
sg96
(lp150
sg98
(lp151
ssg39
(dp152
g94
(lp153
sg96
(lp154
sg98
(lp155
ssg41
(dp156
g94
(lp157
sg96
(lp158
sg98
(lp159
ssg43
(dp160
g94
(lp161
sg96
(lp162
sg98
(lp163
ssg45
(dp164
g94
(lp165
sg96
(lp166
sg98
(lp167
ssg47
(dp168
g94
(lp169
sg96
(lp170
sg98
(lp171
ssg49
(dp172
g94
(lp173
sg96
(lp174
sg98
(lp175
ssg51
(dp176
g94
(lp177
sg96
(lp178
sg98
(lp179
ssg53
(dp180
g94
(lp181
sg96
(lp182
sg98
(lp183
sssS'filters'
p184
(dp185
S'B'
p186
I0
sS'I'
p187
I0
sS'H'
p188
I0
sS'K'
p189
I0
sS'J'
p190
I0
sS'i'
p191
I0
sS'R'
p192
I0
sS'u'
p193
I0
sS'V'
p194
I0
sS'U'
p195
I0
sS'r'
p196
I0
ssS'snnameshort'
p197
S'05az'
p198
sS'templsol'
p199
(dp200
g186
Nsg187
Nsg188
Nsg189
Nsg190
Nsg191
Nsg192
Nsg193
Nsg194
Nsg195
Nsg196
NssS'Vmaxmag'
p201
F0.0
sS'Vmaxflag'
p202
I00
sS'stats'
p203
(dp204
g186
(isnclasses
snstats
p205
(dp206
S'polyrchisq'
p207
F0.0
sS'Rdm15'
p208
F0.0
sS'tlim'
p209
(lp210
F0.0
aF0.0
asS'maglim'
p211
(lp212
F0.0
aF0.0
asS'templresid'
p213
NsS'polyresid'
p214
NsS'dm15'
p215
F0.0
sS'polydeg'
p216
F0.0
sS'success'
p217
I0
sS'flagmiss15'
p218
I0
sS'flagmissmax'
p219
I0
sS'm15data'
p220
(lp221
F0.0
aF0.0
asS'band'
p222
g3
sS'templrchisq'
p223
F0.0
sS'flagbadfit'
p224
I0
sS'Rdm15lin'
p225
(lp226
F0.0
aF0.0
asS'templatefit'
p227
(dp228
S'stretch'
p229
F1.0
sS'yoffset'
p230
F0.0
sS'xoffset'
p231
F0.0
sS'xstretch'
p232
F1.0
ssS'dm15lin'
p233
(lp234
F0.0
aF0.0
asS'maxjd'
p235
(lp236
F0.0
aF0.0
asS'norm'
p237
F0.0
sg229
F0.0
sbsg187
(isnclasses
snstats
p238
(dp239
g207
F0.0
sg208
F0.0
sg209
(lp240
F0.0
aF0.0
asg211
(lp241
F0.0
aF0.0
asg213
Nsg214
Nsg215
F0.0
sg216
F0.0
sg217
I0
sg218
I0
sg219
I0
sg220
(lp242
F0.0
aF0.0
asg222
g3
sg223
F0.0
sg224
I0
sg225
(lp243
F0.0
aF0.0
asg227
(dp244
g229
F1.0
sg230
F0.0
sg231
F0.0
sg232
F1.0
ssg233
(lp245
F0.0
aF0.0
asg235
(lp246
F0.0
aF0.0
asg237
F0.0
sg229
F0.0
sbsg188
(isnclasses
snstats
p247
(dp248
g207
F0.0
sg208
F0.0
sg209
(lp249
F0.0
aF0.0
asg211
(lp250
F0.0
aF0.0
asg213
Nsg214
Nsg215
F0.0
sg216
F0.0
sg217
I0
sg218
I0
sg219
I0
sg220
(lp251
F0.0
aF0.0
asg222
g3
sg223
F0.0
sg224
I0
sg225
(lp252
F0.0
aF0.0
asg227
(dp253
g229
F1.0
sg230
F0.0
sg231
F0.0
sg232
F1.0
ssg233
(lp254
F0.0
aF0.0
asg235
(lp255
F0.0
aF0.0
asg237
F0.0
sg229
F0.0
sbsg189
(isnclasses
snstats
p256
(dp257
g207
F0.0
sg208
F0.0
sg209
(lp258
F0.0
aF0.0
asg211
(lp259
F0.0
aF0.0
asg213
Nsg214
Nsg215
F0.0
sg216
F0.0
sg217
I0
sg218
I0
sg219
I0
sg220
(lp260
F0.0
aF0.0
asg222
g3
sg223
F0.0
sg224
I0
sg225
(lp261
F0.0
aF0.0
asg227
(dp262
g229
F1.0
sg230
F0.0
sg231
F0.0
sg232
F1.0
ssg233
(lp263
F0.0
aF0.0
asg235
(lp264
F0.0
aF0.0
asg237
F0.0
sg229
F0.0
sbsg190
(isnclasses
snstats
p265
(dp266
g207
F0.0
sg208
F0.0
sg209
(lp267
F0.0
aF0.0
asg211
(lp268
F0.0
aF0.0
asg213
Nsg214
Nsg215
F0.0
sg216
F0.0
sg217
I0
sg218
I0
sg219
I0
sg220
(lp269
F0.0
aF0.0
asg222
g3
sg223
F0.0
sg224
I0
sg225
(lp270
F0.0
aF0.0
asg227
(dp271
g229
F1.0
sg230
F0.0
sg231
F0.0
sg232
F1.0
ssg233
(lp272
F0.0
aF0.0
asg235
(lp273
F0.0
aF0.0
asg237
F0.0
sg229
F0.0
sbsg191
(isnclasses
snstats
p274
(dp275
g207
F0.0
sg208
F0.0
sg209
(lp276
F0.0
aF0.0
asg211
(lp277
F0.0
aF0.0
asg213
Nsg214
Nsg215
F0.0
sg216
F0.0
sg217
I0
sg218
I0
sg219
I0
sg220
(lp278
F0.0
aF0.0
asg222
g3
sg223
F0.0
sg224
I0
sg225
(lp279
F0.0
aF0.0
asg227
(dp280
g229
F1.0
sg230
F0.0
sg231
F0.0
sg232
F1.0
ssg233
(lp281
F0.0
aF0.0
asg235
(lp282
F0.0
aF0.0
asg237
F0.0
sg229
F0.0
sbsg192
(isnclasses
snstats
p283
(dp284
g207
F0.0
sg208
F0.0
sg209
(lp285
F0.0
aF0.0
asg211
(lp286
F0.0
aF0.0
asg213
Nsg214
Nsg215
F0.0
sg216
F0.0
sg217
I0
sg218
I0
sg219
I0
sg220
(lp287
F0.0
aF0.0
asg222
g3
sg223
F0.0
sg224
I0
sg225
(lp288
F0.0
aF0.0
asg227
(dp289
g229
F1.0
sg230
F0.0
sg231
F0.0
sg232
F1.0
ssg233
(lp290
F0.0
aF0.0
asg235
(lp291
F0.0
aF0.0
asg237
F0.0
sg229
F0.0
sbsg193
(isnclasses
snstats
p292
(dp293
g207
F0.0
sg208
F0.0
sg209
(lp294
F0.0
aF0.0
asg211
(lp295
F0.0
aF0.0
asg213
Nsg214
Nsg215
F0.0
sg216
F0.0
sg217
I0
sg218
I0
sg219
I0
sg220
(lp296
F0.0
aF0.0
asg222
g3
sg223
F0.0
sg224
I0
sg225
(lp297
F0.0
aF0.0
asg227
(dp298
g229
F1.0
sg230
F0.0
sg231
F0.0
sg232
F1.0
ssg233
(lp299
F0.0
aF0.0
asg235
(lp300
F0.0
aF0.0
asg237
F0.0
sg229
F0.0
sbsg194
(isnclasses
snstats
p301
(dp302
g207
F0.0
sg208
F0.0
sg209
(lp303
F0.0
aF0.0
asg211
(lp304
F0.0
aF0.0
asg213
Nsg214
Nsg215
F0.0
sg216
F0.0
sg217
I0
sg218
I0
sg219
I0
sg220
(lp305
F0.0
aF0.0
asg222
g3
sg223
F0.0
sg224
I0
sg225
(lp306
F0.0
aF0.0
asg227
(dp307
g229
F1.0
sg230
F0.0
sg231
F0.0
sg232
F1.0
ssg233
(lp308
F0.0
aF0.0
asg235
(lp309
F0.0
aF0.0
asg237
F0.0
sg229
F0.0
sbsg195
(isnclasses
snstats
p310
(dp311
g207
F0.0
sg208
F0.0
sg209
(lp312
F0.0
aF0.0
asg211
(lp313
F0.0
aF0.0
asg213
Nsg214
Nsg215
F0.0
sg216
F0.0
sg217
I0
sg218
I0
sg219
I0
sg220
(lp314
F0.0
aF0.0
asg222
g3
sg223
F0.0
sg224
I0
sg225
(lp315
F0.0
aF0.0
asg227
(dp316
g229
F1.0
sg230
F0.0
sg231
F0.0
sg232
F1.0
ssg233
(lp317
F0.0
aF0.0
asg235
(lp318
F0.0
aF0.0
asg237
F0.0
sg229
F0.0
sbsg196
(isnclasses
snstats
p319
(dp320
g207
F0.0
sg208
F0.0
sg209
(lp321
F0.0
aF0.0
asg211
(lp322
F0.0
aF0.0
asg213
Nsg214
Nsg215
F0.0
sg216
F0.0
sg217
I0
sg218
I0
sg219
I0
sg220
(lp323
F0.0
aF0.0
asg222
g3
sg223
F0.0
sg224
I0
sg225
(lp324
F0.0
aF0.0
asg227
(dp325
g229
F1.0
sg230
F0.0
sg231
F0.0
sg232
F1.0
ssg233
(lp326
F0.0
aF0.0
asg235
(lp327
F0.0
aF0.0
asg237
F0.0
sg229
F0.0
sbssS'lc'
p328
(dp329
g94
g56
(g57
(I0
tp330
g59
tp331
Rp332
(I1
(I120
tp333
g76
I00
S"P\xd9PG@\xf8PG7\x08QG@'QG1-QGN\xd9PGK\xdaPGU\xe3PG[\xf4PGb\xf6PG=\xf8PGP\tQGY\rQGH\x18QG?8QG&9QGi\xe0PGf\xe1PGj\xe1PGT\xe3PGQ\xf4PGV\xf4PGZ\xf4PG5\xf5PG<\xf8PG>\xfaPG?\xfbPG8\xfePGE\x0cQG6\x12QGD\x18QG--QGN\xd9PGL\xdaPGj\xe0PGg\xe1PGj\xe1PGU\xe3PGE\xe6PGE\xe7PGb\xeaPGR\xf4PGV\xf4PG[\xf4PG5\xf5PG=\xf8PG?\xfaPG@\xfbPG8\xfePGE\x04QG.-QG'9QG6\xfdPG.\xfePG3\xffPG3\x00QG.\x02QG3\x05QG8\x06QG8\x07QG.\x08QG.\tQG;\nQG.\x0bQG,\x0cQG,\x11QG,\x12QG,\x14QG,\x15QG)\x16QG.\x17QG$\x19QG6,QG1.QG;4QG6\xfdPG.\xfePG3\xffPG3\x00QG.\x02QG6\x03QG3\x05QG8\x06QG8\x07QG.\x08QG.\tQG;\nQG.\x0bQG,\x0cQG,\x11QG,\x12QG,\x13QG,\x14QG,\x15QG)\x16QG.\x17QG$\x19QG6,QG1.QG;4QG6\xfdPG.\xfePG3\xffPG.\x02QG6\x03QG3\x05QG8\x06QG8\x07QG.\x08QG.\tQG.\x0bQG,\x0cQG,\x11QG,\x12QG,\x13QG,\x15QG)\x16QG.\x17QG$\x19QG1.QG"
p334
tp335
bsS'ccmag'
p336
g56
(g57
(I0
tp337
g59
tp338
Rp339
(I1
(I120
tp340
g76
I00
S"\xee|\x90A\xecQ\x95AJ\x0c\x9aAD\x8b\xa1A\x9c\xc4\xa1A\xfe\xd4\x83A33\x84AV\x0e\x83AP\x8d\x87AZd\x88A\x00\x00\x89AF\xb6\x8dA\xaeG\x8eA\xb0r\x8fA\x93\x18\x94AF\xb6\x93A\x08\xac\x80A9\xb4\x80A\n\xd7\x80A\xfa~\x80A\xdd$\x84A\xfa~\x83A\xa6\x9b\x83A\x19\x04\x84A\xe5\xd0\x84A\xf0\xa7\x85A\x9e\xef\x85A\xb8\x1e\x87A\x91\xed\x88A\xd7\xa3\x8aA\x10X\x8aA\xf6(\x8fAT\xe3\x82A\xe5\xd0\x82A\xe5\xd0\x80A\x8f\xc2\x7fA\xcb\xa1\x7fAP\x8d\x80A\x19\x04\x80A\x96C\x7fA\xcd\xcc\x80A\x00\x00\x82A\xf2\xd2\x81A\x17\xd9\x81Aq=\x82A\x0e-\x83A\x7fj\x83A#\xdb\x83A;\xdf\x84A\x91\xed\x86A\xb6\xf3\x8dA\x02+\x8fA\xdfOyA\xbct{A\xd7\xa3xA\x87\x16yA5^zA\xdfO}A\xf4\xfd~AV\x0e\x7fA\xe9&\x81Ad;\x7fA\xfa~~A\xfe\xd4~A\x0e-\x80A\xe9&\x82A}?\x81A}?\x82A\xb8\x1e\x82A\x89A\x83A\xb2\x9d\x82Ab\x10\x82A\x17\xd9\x8aAX9\x8cA+\x87\x8dA\x8blsA\x89ArA\xa6\x9brA#\xdbsAm\xe7uA\xbctwA\xa4pwA#\xdbwAZd{A{\x14zA\x81\x95wA\xb6\xf3wA\x87\x16yA\xfa~xA\x9e\xef{A\xa6\x9bzA\xe9&\x80A\x0e-~A\xdb\xf9\x80A\x8f\xc2\x80Aq=~Ab\x10~A\xcd\xcc\x86A\x19\x04\x85Aff\x86A\xfa~vA\x12\x83xA'1zA\xa0\x1asA\xa8\xc6uANbzAff|A-\xb2{A\xd5xwA\xbe\x9fxA\x8d\x97zA\x8bl{A/\xdd|AV\x0e\x80A\x85\xeb\x84Ay\xe9\x82A\xdd$\x86Ash\x82A\x8bl\x85A!\xb0\x86A"
p341
tp342
bsg98
g56
(g57
(I0
tp343
g59
tp344
Rp345
(I1
(I120
tp346
g76
I00
S"R\xb8\x8fAP\x8d\x94A\xa2E\x99A\\\x8f\xa0A\xf2\xd2\xa0A\x89A\x84A\xbe\x9f\x84A\xfa~\x83A\xe7\xfb\x87A\xe5\xd0\x88A\x8bl\x89A\xdd$\x8eAR\xb8\x8eA\xb6\xf3\x8fA\xbe\x9f\x94Aq=\x94A\x91\xed\x80A\xdb\xf9\x80A\xb8\x1e\x81A\x8f\xc2\x80A\xf8S\x84A\xb2\x9d\x83Aj\xbc\x83A\xdd$\x84Ay\xe9\x84A\x9c\xc4\x85A1\x08\x86AX9\x87A\x91\xed\x88A\xfe\xd4\x8aA\xb0r\x8aA\x98n\x8fA\xdfO\x83Aq=\x83A?5\x81Aq=\x80A\x0e-\x80A\xb6\xf3\x80ANb\x80A\xcf\xf7\x7fA\xf6(\x81A\xaeG\x82A\x93\x18\x82A\xb8\x1e\x82A\x06\x81\x82A\x98n\x83A\xe3\xa5\x83A\x87\x16\x84A\x93\x18\x85A\x1b/\x87A\x1dZ\x8eAu\x93\x8fA\xdfOyA\xbct{A\xd7\xa3xA\x87\x16yA5^zA\xdfO}A\xf4\xfd~AV\x0e\x7fA\xe9&\x81Ad;\x7fA\xfa~~A\xfe\xd4~A\x0e-\x80A\xe9&\x82A}?\x81A}?\x82A\xb8\x1e\x82A\x89A\x83A\xb2\x9d\x82Ab\x10\x82A\x17\xd9\x8aAX9\x8cA+\x87\x8dA\x8blsA\x89ArA\xa6\x9brA#\xdbsAm\xe7uA\xbctwA\xa4pwA#\xdbwAZd{A{\x14zA\x81\x95wA\xb6\xf3wA\x87\x16yA\xfa~xA\x9e\xef{A\xa6\x9bzA\xe9&\x80A\x0e-~A\xdb\xf9\x80A\x8f\xc2\x80Aq=~Ab\x10~A\xcd\xcc\x86A\x19\x04\x85Aff\x86A\xfa~vA\x12\x83xA'1zA\xa0\x1asA\xa8\xc6uANbzAff|A-\xb2{A\xd5xwA\xbe\x9fxA\x8d\x97zA\x8bl{A/\xdd|AV\x0e\x80A\x85\xeb\x84Ay\xe9\x82A\xdd$\x86Ash\x82A\x8bl\x85A!\xb0\x86A"
p347
tp348
bsS'photcode'
p349
g56
(g57
(I0
tp350
g59
tp351
Rp352
(I1
(I120
tp353
g63
(S'S2'
p354
I0
I1
tp355
Rp356
(I3
S'|'
p357
NNNI2
I1
I0
tp358
bI00
S'02020202020303030303030303030303131313131313131313131313131313131414141414141414141414141414141414141414J\x00J\x00J\x00J\x00J\x00J\x00J\x00J\x00J\x00J\x00J\x00J\x00J\x00J\x00J\x00J\x00J\x00J\x00J\x00J\x00J\x00J\x00J\x00H\x00H\x00H\x00H\x00H\x00H\x00H\x00H\x00H\x00H\x00H\x00H\x00H\x00H\x00H\x00H\x00H\x00H\x00H\x00H\x00H\x00H\x00H\x00H\x00H\x00K\x00K\x00K\x00K\x00K\x00K\x00K\x00K\x00K\x00K\x00K\x00K\x00K\x00K\x00K\x00K\x00K\x00K\x00K\x00K\x00'
p359
tp360
bsg96
g56
(g57
(I0
tp361
g59
tp362
Rp363
(I1
(I120
tp364
g76
I00
S'\n\xd7#=)\\\x0f=\xbaI\x0c>\xa0\x1a\xaf>\xc1\xca\xa1=\x96C\x8b<o\x12\x03=\xa6\x9bD=P\x8d\x17=\n\xd7#=1\x08,=h\x91m=\x17\xd9\xce=h\x91\xed<P\x8d\x17=\x10X9>B`\xe5<\x8f\xc2\xf5<\x02+\x07=\xf4\xfd\xd4<\xbct\x13=\xcd\xcc\xcc<o\x12\x03=\x1b/\xdd<\xf4\xfd\xd4<\xf4\xfd\xd4<\xa6\x9b\xc4<\x1b/\xdd<\x8f\xc2\xf5<\x1b/\xdd<\xf4\xfd\xd4<\x02+\x07=\xcd\xcc\xcc<1\x08\xac<h\x91\xed<)\\\x0f=\n\xd7#=\xbct\x13=B`\xe5<\x1b/\xdd<\xc1\xca\xa1=B`\xe5<\x1b/\xdd<\x02+\x07=\x1b/\xdd<o\x12\x03=\x8f\xc2\xf5<\x8f\xc2\xf5<\x1b/\xdd<\x9e\xef\xa7=\x8f\xc2\xf5<\x8f\xc2\xf5<\x87\x16Y=\xa6\x9bD=X94=)\\\x0f=B`\xe5<X94=h\x91m=\x7fj<=\x00\x00\x80>w\xbe\x1f=333>\x1b/]=333>\xcd\xccL=\xc9v\xbe=-\xb2\x9d=\xc1\xca\xa1=\xc9v\xbe=X9\xb4=1\x08,=o\x12\x03>\x00\x00\x80>`\xe5P>\n\xd7#=L7\x89=\xc1\xca\xa1=\x02+\x87=h\x91m=\xf8S\xe3=\x9e\xef\xa7=)\\\x8f=\x06\x81\x95=%\x06\x01>sh\x91=\x00\x00\x80>\xecQ8=333>#\xdby=\x00\x00\x80>B`e=b\x10X>333>\x00\x00\x80>9\xb4H=\x96C\x8b=\xfc\xa9\xf1=\xe7\xfb\xa9>\xaeGa=\xf2\xd2M>o\x12\x83=h\x91m=\x8d\x97n>333>333>\xcf\xf7S>\x00\x00\x80>333>333>\xfc\xa9\xf1=333>\xb2\x9d\xef=\x00\x00\x80>\xbct\x13>\x98n\x12>%\x06\x01>F\xb6\xf3=333>\x91\xed|>'
p365
tp366
bssS'Rmax'
p367
(dp368
sS'polyfit'
p369
NsS'ebmvtot'
p370
F0.0
sS'Vmax'
p371
F2453473.86
sS'type'
p372
S'Ic'
p373
sS'metadata'
p374
(dp375
g3
S'0.706'
p376
sS'cfaUmaxerr'
p377
S'0.04'
p378
sS'v2 Fe II 5169 date'
p379
S'1.3'
p380
sS'D11Rmax'
p381
g3
sS'v_z'
p382
S'2622'
p383
sS'E(b-v)hosterr'
p384
S'0.11'
p385
sS'v1 Fe II 5018 date'
p386
S'-0.7'
p387
sS'cfaRmaxerr'
p388
S'0.03'
p389
sS'CfA RJD bootstrap'
p390
S'53476.1'
p391
sS'inclination from axes sdss'
p392
S'55.7422395267747'
p393
sS'my E(B-V)host from inclination'
p394
S'0.262541919151995'
p395
sS'RA'
p396
S'13:05:46'
p397
sS'cfaVmaxerr'
p398
S'0.05'
p399
sS'Dm15 (with Lyman BC correction)'
p400
g3
sS'CfA E(B-V)host'
p401
g3
sS'lcvquality'
p402
S'1'
p403
sS'v1 Fe II 5169 '
p404
S'-8323'
p405
sS'decdeg'
p406
S'27.7356666667'
p407
sS'cfaVmax'
p408
S'16.4'
p409
sS'CfA VJD bootstrap error'
p410
S'0.75'
p411
sS'MaxVJD'
p412
S'2453473.2'
p413
sS'D11Vmaxdate'
p414
g3
sS'v1 Fe II 5018 '
p415
S'-7901.9'
p416
sS'D11Rmaxdate'
p417
g3
sS'D11Rmaxerr'
p418
g3
sS'Fe II 5169 at maximum (linear interpolation error)'
p419
S'2359.16918638745'
p420
sS'D11Vmaxerr'
p421
g3
sS'axis ratio sdss'
p422
S'0.626'
p423
sS'D11Rmaxdateerr'
p424
g3
sS'v2 FeII 5018 date'
p425
S'1.3'
p426
sS'DEC'
p427
S'+27:44:08.4'
p428
sS'Type'
p429
g373
sS'cfaJmaxerr'
p430
S'-'
p431
sS'SNname'
p432
S'sn2005az'
p433
sS'Fe II 5169 at maximum (linear interpolation)'
p434
S'-8237.18'
p435
sS'inclination'
p436
S'47'
p437
sS'cfaHmaxerr'
p438
g431
sS'DFS E(B-V)'
p439
S'0.0113'
p440
sS'image subtraction needed'
p441
S'Y'
p442
sS'CfA BJD bootstrap'
p443
S'<0000000'
p444
sS'v1 Fe II 5169 date'
p445
S'-0.7'
p446
sS' CfA E(B-V)hosterr'
p447
g3
sS'v2 Fe II 5018'
p448
S'-8323.33'
p449
sS'P13 UV data'
p450
S'0'
p451
sS'cfaHmax'
p452
g3
sS'v2 Fe II 5169 error'
p453
S'1548.2'
p454
sS'CfA IJD bootstrap'
p455
S'<0000000'
p456
sS'cfaKmax'
p457
g431
sS'comment'
p458
S" ;dm15=0.36 ; D11noVmax, [v=2535. NED]  mu_virgo=32.94  A_V=0.037, **GLC ;fitcfalc,'sn05az.df.k20060129.Ic.i',band='V',/shooter,jdmax=520"
p459
sS'dVJD CfA bootstrap'
p460
S'-0.65999999968335'
p461
sS'radeg'
p462
S'196.441666667'
p463
sS'distance Mpc'
p464
S'37.774282659'
p465
sS'inclination error'
p466
S'(+4,-5)'
p467
sS'PAIRITEL'
p468
g442
sS'cfaImax'
p469
S'15.97'
p470
sS'Fe II 5169 new'
p471
S'-7159.9473'
p472
sS'cfaBmaxerr'
p473
g431
sS'v2 Fe II 5018 error'
p474
S'1612'
p475
sS'E(b-v)host'
p476
S'0.43'
p477
sS'CfA photometric quality (1best, 3 worst)'
p478
g403
sS'inclination/E(B-V) ref'
p479
S'D11/D11'
p480
sS'cfaBmax'
p481
g431
sS'CfA IJD error'
p482
S'<0000000'
p483
sS'D11Vmaxdateerr'
p484
g3
sS'CfA dm15'
p485
S'-0.212'
p486
sS'Fe II 5018 at maximum (linear interpolation)'
p487
S'-8049.42'
p488
sS'CfA BJD error'
p489
S'<0000000'
p490
sS'earliestV'
p491
S'--'
p492
sS'inclination from leida'
p493
S'38.7'
p494
sS'CfA dm15 linear'
p495
S'-0.188'
p496
sS'z'
p497
S'0.00875'
p498
sS'cfaImaxerr'
p499
S'0.04'
p500
sS'cfaJmax'
p501
g3
sS'max_ref'
p502
S'CfA'
p503
sS'v2 Fe II 5169'
p504
S'-8077.8'
p505
sS'FeII51691or2'
p506
S'-8200.4'
p507
sS'CfA VJD bootstrap'
p508
S'2453473.86'
p509
sS'v1 Fe II 5018 error'
p510
S'1900.8'
p511
sS'MaxVdate'
p512
S'20050411.7'
p513
sS'z_ref'
p514
S'SN'
p515
sS'D11Vmax'
p516
g3
sS'distanced11'
p517
S'39'
p518
sS'separation '
p519
g431
sS'hostgal'
p520
S'NGC4961'
p521
sS'E(B-V)'
p522
S'0.011'
p523
sS'inclination from axes'
p524
S'57.7501323426082'
p525
sS'CfA RJD error'
p526
S'0.54'
p527
sS'cfaKmaxerr'
p528
g431
sS'axis ratio'
p529
S'0.59983007646559'
p530
sS'MaxVMag'
p531
S'16.4'
p532
sS'cfaRmax'
p533
S'16.06'
p534
sS'v1 Fe II 5169 error'
p535
S'1780.1'
p536
sS'E(B-V) SF2011'
p537
S'0.0097'
p538
sS'cfaUmax'
p539
S'15.99'
p540
ssS'fnir'
p541
S'/Users/fbianco/science/Dropbox/strippedcfaSN//nirphot/PAIRITEL_Ibc/Ibc/lcs/mag/sn2005az_SN.13.rec.p3.fdi.exclude_bad.nntemp.galsub.f12.SNR3.clean.mag.dat'
p542
sg219
I00
sS'polysol'
p543
(dp544
g186
Nsg187
Nsg188
Nsg189
Nsg190
Nsg191
Nsg192
Nsg193
Nsg194
Nsg195
Nsg196
NssS'nir'
p545
I01
sS'maxmags'
p546
(dp547
g186
(dp548
g11
F0.0
sg96
Fnan
sg98
Fnan
ssg187
(dp549
g11
F0.0
sg96
Fnan
sg98
Fnan
ssg188
(dp550
g11
F0.0
sg96
Fnan
sg98
Fnan
ssg189
(dp551
g11
F0.0
sg96
Fnan
sg98
Fnan
ssg190
(dp552
g11
F0.0
sg96
Fnan
sg98
Fnan
ssg191
(dp553
g11
F0.0
sg96
Fnan
sg98
Fnan
ssg192
(dp554
g11
F0.0
sg96
Fnan
sg98
Fnan
ssg193
(dp555
g11
F0.0
sg96
Fnan
sg98
Fnan
ssg194
(dp556
g11
F0.0
sg96
Fnan
sg98
Fnan
ssg195
(dp557
g11
F0.0
sg96
Fnan
sg98
Fnan
ssg196
(dp558
g11
F0.0
sg96
Fnan
sg98
Fnan
sssS'snspline'
p559
(dp560
g186
Nsg187
Nsg188
Nsg189
Nsg190
Nsg191
Nsg192
Nsg193
Nsg194
Nsg195
Nsg196
NssS'pipeline'
p561
S'CfA3'
p562
sS'name'
p563
S'sn2005az'
p564
sS'solution'
p565
(dp566
g186
(dp567
S'resid'
p568
NsS'pars'
p569
NsS'sol'
p570
NsS'deg'
p571
Nssg187
(dp572
g568
Nsg569
Nsg570
Nsg571
Nssg188
(dp573
g568
Nsg569
Nsg570
Nsg571
Nssg189
(dp574
g568
Nsg569
Nsg570
Nsg571
Nssg190
(dp575
g568
Nsg569
Nsg570
Nsg571
Nssg191
(dp576
g568
Nsg569
Nsg570
Nsg571
Nssg192
(dp577
g568
Nsg569
Nsg570
Nsg571
Nssg193
(dp578
g568
Nsg569
Nsg570
Nsg571
Nssg194
(dp579
g568
Nsg569
Nsg570
Nsg571
Nssg195
(dp580
g568
Nsg569
Nsg570
Nsg571
Nssg196
(dp581
g568
Nsg569
Nsg570
Nsg571
NsssS'su'
p582
(itemplutils
setupvars
p583
(dp584
S'photcodes'
p585
(dp586
g186
(S'02'
p587
S'07'
p588
tp589
sg187
(S'05'
p590
S'0a'
p591
tp592
sg188
(g188
g188
tp593
sg189
(g189
g189
tp594
sg190
(g190
g190
tp595
sg192
(S'04'
p596
S'09'
p597
tp598
sg195
(S'01'
p599
S'06'
p600
tp601
sg194
(S'03'
p602
S'08'
p603
tp604
sg191
(S'14'
p605
S'0c'
p606
tp607
sg196
(S'13'
p608
S'0b'
p609
tp610
sg193
(S'15'
p611
g611
tp612
ssS'mysymbols'
p613
(dp614
S'Ic-bl'
p615
S'v'
p616
sS'other'
p617
S'x'
p618
sS'IIb'
p619
S'^'
p620
sS'IIb-n'
p621
S'>'
p622
sS'Ic'
p623
S's'
p624
sS'Ib'
p625
S'o'
p626
ssS'bandsnonir'
p627
(lp628
g195
ag193
ag186
ag194
ag192
ag187
ag196
ag191
asS'ebmvcfa'
p629
(dp630
S'07gr'
p631
F0.0462
sS'09iz'
p632
F0.064
sS'04aw'
p633
F0.352
sS'06aj'
p634
F0.141
sS'07ag'
p635
F0.627
sS'02ap'
p636
F0.03
sS'05kl'
p637
F1.344
sS'08bo'
p638
F0.294
sS'06lv'
p639
F0.574
sS'05kz'
p640
F0.437
sS'06F'
p641
F0.533
sS'07uy'
p642
F0.378
sS'08D'
p643
F0.572
sS'05bf'
p644
F0.05
sS'09jf'
p645
F0.045
sS'06bf'
p646
F0.368
sS'06fo'
p647
F0.201
sS'05mf'
p648
F0.231
sS'06T'
p649
F0.397
sS'07ce'
p650
F0.082
sS'07ru'
p651
F0.01
sS'03jd'
p652
F0.1
sS'07cl'
p653
F0.258
sS'09er'
p654
F0.11
sS'06el'
p655
F0.147
sS'06ep'
p656
F0.448
sS'07kj'
p657
F0.295
sS'07C'
p658
F0.65
sS'05hg'
p659
F0.244
ssS'insts'
p660
(lp661
S'shooter'
p662
aS'kepler'
p663
aS'mini'
p664
asS'mycolors'
p665
(dp666
g186
S'#0066cc'
p667
sg187
S'm'
p668
sg188
S'#FFB700'
p669
sg189
S'#A4A4A4'
p670
sg190
S'#4F088A'
p671
sg192
S'#b20000'
p672
sg195
S'k'
p673
sg194
S'#47b56c'
p674
sg191
g668
sg196
g672
sg193
g673
ssS'bands'
p675
(lp676
g195
ag193
ag186
ag194
ag192
ag187
ag196
ag191
ag190
ag188
ag189
asS'mylines'
p677
(dp678
g615
S'dotted'
p679
sg617
S'solid'
p680
sg619
g680
sg621
g680
sg623
g680
sg625
S'dashed'
p681
ssS'mytypecolors'
p682
(dp683
g615
g196
sg617
g673
sg619
S'g'
p684
sg621
S'y'
p685
sg623
g59
sg625
g673
ssS'mycolorcolors'
p686
(dp687
g45
S'#9999EE'
p688
sg33
S'#0B0B3B'
p689
sg43
g672
sg8
S'SlateBlue'
p690
sg13
g688
sg15
g668
sg23
g674
sg21
g668
sg49
g689
sg35
S'#70B8FF'
p691
sg31
g689
sg47
g689
sg37
g667
sg39
S'#FFCC80'
p692
sg51
g673
sg53
S'purple'
p693
sg41
g692
sg17
g672
sg19
g674
ssS'AonEBmV'
p694
(dp695
S'm2'
p696
F4.3
sg186
F4.315
sS'w1'
p697
F4.3
sg187
F1.94
sg188
F0.576
sg189
F0.367
sg190
F0.902
sg191
F2.086
sg192
F2.673
sg195
F5.434
sS'w2'
p698
F4.3
sS'vv'
p699
F3.315
sg194
F3.315
sg193
F5.155
sS'uu'
p700
F5.155
sg196
F2.751
ssS'instcodes'
p701
(dp702
g664
I1
sg663
I0
sg662
I0
ssS'ebmvs'
p703
(dp704
S'04ge'
p705
F0.0754
sS'04gk'
p706
F0.0247
sS'07aw'
p707
F0.0338
sS'04gt'
p708
F0.0398
sS'06gi'
p709
F0.0205
sS'04gv'
p710
F0.0286
sS'04gq'
p711
F0.0627
sg635
F0.025
sg648
F0.0153
sS'97dq'
p712
F0.0382
sS'05ek'
p713
F0.1811
sS'05eo'
p714
F0.0585
sS'98fa'
p715
F0.0382
sS'01ej'
p716
F0.046
sS'93J'
p717
F0.069
sg647
F0.025
sS'05nb'
p718
F0.032
sS'06ir'
p719
F0.0393
sS'09K'
p720
F0.0491
sS'04ff'
p721
F0.0281
sS'04fe'
p722
F0.021
sS'04ao'
p723
F0.0893
sg633
F0.018
sg637
F0.0219
sg639
F0.0245
sS'06ck'
p724
F0.0245
sS'05kf'
p725
F0.0378
sS'07hb'
p726
F0.0518
sg640
F0.046
sS'06ld'
p727
F0.0144
sS'06lc'
p728
F0.0556
sS'05da'
p729
F0.2483
sS'08hh'
p730
F0.0427
sg649
F0.0647
sS'07iq'
p731
F0.1182
sg654
F0.0389
sS'97ef'
p732
F0.0366
sS'96cb'
p733
F0.0262
sg632
F0.0729
sS'05az'
p734
F0.0097
sS'06cb'
p735
F0.0094
sS'05ar'
p736
F0.0394
sg638
F0.0513
sS'07bg'
p737
F0.0179
sS'01ai'
p738
F0.0081
sS'06jc'
p739
F0.0173
sS'06ss'
p740
F0.0178
sg641
F0.1635
sg642
F0.0194
sg644
F0.0385
sS'02ji'
p741
F0.0217
sS'97X'
p742
F0.0237
sg645
F0.0971
sg646
F0.0216
sS'06ba'
p743
F0.0452
sS'08an'
p744
F0.045
sg650
F0.02
sg651
F0.2254
sg652
F0.0784
sg653
F0.037
sS'07rz'
p745
F0.1723
sg655
F0.0973
sg656
F0.031
sg657
F0.0691
sS'08ax'
p746
F0.0186
sS'05U'
p747
F0.0143
sS'07ke'
p748
F0.0954
sS'08aq'
p749
F0.0383
sg631
F0.0535
sS'05la'
p750
F0.01
sS'94I'
p751
F0.0302
sS'95bb'
p752
F0.0948
sg634
F0.1267
sg636
F0.062
sS'98dt'
p753
F0.0219
sS'04eu'
p754
F0.0466
sS'00H'
p755
F0.1964
sS'01gd'
p756
F0.0098
sS'04dn'
p757
F0.0415
sg643
F0.0194
sS'95F'
p758
F0.0311
sS'08cw'
p759
F0.006
sS'07D'
p760
F0.2881
sg658
F0.0363
sg659
F0.0901
sS'04dk'
p761
F0.1357
sS'07I'
p762
F0.025
ssS'ebmvhost'
p763
(dp764
g631
F0.038
sg636
F0.03
sg651
F0.01
sg652
F0.1
sg633
F0.352
sg746
F0.4
sg643
F0.5406
ssS'cs'
p765
(dp766
g8
I13
sg13
I8
sg15
I7
sg17
I3
sg19
I2
sg21
I6
sg23
I5
sg25
I16
sg27
I18
sg29
I17
sg31
I11
sg33
I19
sg35
I10
sg37
I1
sg39
I9
sg41
I14
sg43
I4
sg45
I9
sg47
I11
sg49
I15
sg51
I0
sg53
I12
ssS'bandsindex'
p767
(dp768
g186
I1
sg187
I4
sg188
I8
sg189
I9
sg190
I7
sg192
I3
sg195
I0
sg194
I2
sg191
I6
sg196
I5
sg193
I0
ssS'bandsnir'
p769
(lp770
g190
ag188
ag189
asS'myshapes'
p771
(dp772
g186
g624
sg187
g622
sg188
g624
sg189
g626
sg190
g620
sg192
g616
sg195
g620
sg194
g626
sg191
S'h'
p773
sg196
S'd'
p774
sg193
g620
ssS'types'
p775
(lp776
g625
ag623
ag619
ag615
ag621
asS'cbands'
p777
(lp778
g51
ag47
ag31
ag37
ag19
ag17
ag43
ag23
ag21
ag15
ag13
ag53
ag8
ag41
ag49
ag25
ag29
ag27
aS'H-i'
p779
aS'J-H'
p780
aS'K-J'
p781
asbsS'n'
p782
NsS'dr15'
p783
F0.0
sS'photometry'
p784
(dp785
g186
(dp786
g94
g56
(g57
(I0
tp787
g59
tp788
Rp789
(I1
(I0
tp790
g63
(S'f8'
p791
I0
I1
tp792
Rp793
(I3
S'<'
p794
NNNI-1
I-1
I0
tp795
bI00
g3
tp796
bsS'camsys'
p797
(lp798
g3
asS'natmag'
p799
g56
(g57
(I0
tp800
g59
tp801
Rp802
(I1
(I0
tp803
g793
I00
g3
tp804
bsg96
g56
(g57
(I0
tp805
g59
tp806
Rp807
(I1
(I0
tp808
g793
I00
g3
tp809
bsS'extmag'
p810
g56
(g57
(I0
tp811
g59
tp812
Rp813
(I1
(I0
tp814
g793
I00
g3
tp815
bsg98
g56
(g57
(I0
tp816
g59
tp817
Rp818
(I1
(I0
tp819
g793
I00
g3
tp820
bssg187
(dp821
g94
g56
(g57
(I0
tp822
g59
tp823
Rp824
(I1
(I0
tp825
g793
I00
g3
tp826
bsg797
(lp827
g3
asg799
g56
(g57
(I0
tp828
g59
tp829
Rp830
(I1
(I0
tp831
g793
I00
g3
tp832
bsg96
g56
(g57
(I0
tp833
g59
tp834
Rp835
(I1
(I0
tp836
g793
I00
g3
tp837
bsg810
g56
(g57
(I0
tp838
g59
tp839
Rp840
(I1
(I0
tp841
g793
I00
g3
tp842
bsg98
g56
(g57
(I0
tp843
g59
tp844
Rp845
(I1
(I0
tp846
g793
I00
g3
tp847
bssg188
(dp848
g94
g56
(g57
(I0
tp849
g59
tp850
Rp851
(I1
(I0
tp852
g793
I00
g3
tp853
bsg797
(lp854
g3
asg799
g56
(g57
(I0
tp855
g59
tp856
Rp857
(I1
(I0
tp858
g793
I00
g3
tp859
bsg96
g56
(g57
(I0
tp860
g59
tp861
Rp862
(I1
(I0
tp863
g793
I00
g3
tp864
bsg810
g56
(g57
(I0
tp865
g59
tp866
Rp867
(I1
(I0
tp868
g793
I00
g3
tp869
bsg98
g56
(g57
(I0
tp870
g59
tp871
Rp872
(I1
(I0
tp873
g793
I00
g3
tp874
bssg189
(dp875
g94
g56
(g57
(I0
tp876
g59
tp877
Rp878
(I1
(I0
tp879
g793
I00
g3
tp880
bsg797
(lp881
g3
asg799
g56
(g57
(I0
tp882
g59
tp883
Rp884
(I1
(I0
tp885
g793
I00
g3
tp886
bsg96
g56
(g57
(I0
tp887
g59
tp888
Rp889
(I1
(I0
tp890
g793
I00
g3
tp891
bsg810
g56
(g57
(I0
tp892
g59
tp893
Rp894
(I1
(I0
tp895
g793
I00
g3
tp896
bsg98
g56
(g57
(I0
tp897
g59
tp898
Rp899
(I1
(I0
tp900
g793
I00
g3
tp901
bssg190
(dp902
g94
g56
(g57
(I0
tp903
g59
tp904
Rp905
(I1
(I0
tp906
g793
I00
g3
tp907
bsg797
(lp908
g3
asg799
g56
(g57
(I0
tp909
g59
tp910
Rp911
(I1
(I0
tp912
g793
I00
g3
tp913
bsg96
g56
(g57
(I0
tp914
g59
tp915
Rp916
(I1
(I0
tp917
g793
I00
g3
tp918
bsg810
g56
(g57
(I0
tp919
g59
tp920
Rp921
(I1
(I0
tp922
g793
I00
g3
tp923
bsg98
g56
(g57
(I0
tp924
g59
tp925
Rp926
(I1
(I0
tp927
g793
I00
g3
tp928
bssg191
(dp929
g94
g56
(g57
(I0
tp930
g59
tp931
Rp932
(I1
(I0
tp933
g793
I00
g3
tp934
bsg797
(lp935
g3
asg799
g56
(g57
(I0
tp936
g59
tp937
Rp938
(I1
(I0
tp939
g793
I00
g3
tp940
bsg96
g56
(g57
(I0
tp941
g59
tp942
Rp943
(I1
(I0
tp944
g793
I00
g3
tp945
bsg810
g56
(g57
(I0
tp946
g59
tp947
Rp948
(I1
(I0
tp949
g793
I00
g3
tp950
bsg98
g56
(g57
(I0
tp951
g59
tp952
Rp953
(I1
(I0
tp954
g793
I00
g3
tp955
bssg192
(dp956
g94
g56
(g57
(I0
tp957
g59
tp958
Rp959
(I1
(I0
tp960
g793
I00
g3
tp961
bsg797
(lp962
g3
asg799
g56
(g57
(I0
tp963
g59
tp964
Rp965
(I1
(I0
tp966
g793
I00
g3
tp967
bsg96
g56
(g57
(I0
tp968
g59
tp969
Rp970
(I1
(I0
tp971
g793
I00
g3
tp972
bsg810
g56
(g57
(I0
tp973
g59
tp974
Rp975
(I1
(I0
tp976
g793
I00
g3
tp977
bsg98
g56
(g57
(I0
tp978
g59
tp979
Rp980
(I1
(I0
tp981
g793
I00
g3
tp982
bssg193
(dp983
g94
g56
(g57
(I0
tp984
g59
tp985
Rp986
(I1
(I0
tp987
g793
I00
g3
tp988
bsg797
(lp989
g3
asg799
g56
(g57
(I0
tp990
g59
tp991
Rp992
(I1
(I0
tp993
g793
I00
g3
tp994
bsg96
g56
(g57
(I0
tp995
g59
tp996
Rp997
(I1
(I0
tp998
g793
I00
g3
tp999
bsg810
g56
(g57
(I0
tp1000
g59
tp1001
Rp1002
(I1
(I0
tp1003
g793
I00
g3
tp1004
bsg98
g56
(g57
(I0
tp1005
g59
tp1006
Rp1007
(I1
(I0
tp1008
g793
I00
g3
tp1009
bssg194
(dp1010
g94
g56
(g57
(I0
tp1011
g59
tp1012
Rp1013
(I1
(I0
tp1014
g793
I00
g3
tp1015
bsg797
(lp1016
g3
asg799
g56
(g57
(I0
tp1017
g59
tp1018
Rp1019
(I1
(I0
tp1020
g793
I00
g3
tp1021
bsg96
g56
(g57
(I0
tp1022
g59
tp1023
Rp1024
(I1
(I0
tp1025
g793
I00
g3
tp1026
bsg810
g56
(g57
(I0
tp1027
g59
tp1028
Rp1029
(I1
(I0
tp1030
g793
I00
g3
tp1031
bsg98
g56
(g57
(I0
tp1032
g59
tp1033
Rp1034
(I1
(I0
tp1035
g793
I00
g3
tp1036
bssg195
(dp1037
g94
g56
(g57
(I0
tp1038
g59
tp1039
Rp1040
(I1
(I0
tp1041
g793
I00
g3
tp1042
bsg797
(lp1043
g3
asg799
g56
(g57
(I0
tp1044
g59
tp1045
Rp1046
(I1
(I0
tp1047
g793
I00
g3
tp1048
bsg96
g56
(g57
(I0
tp1049
g59
tp1050
Rp1051
(I1
(I0
tp1052
g793
I00
g3
tp1053
bsg810
g56
(g57
(I0
tp1054
g59
tp1055
Rp1056
(I1
(I0
tp1057
g793
I00
g3
tp1058
bsg98
g56
(g57
(I0
tp1059
g59
tp1060
Rp1061
(I1
(I0
tp1062
g793
I00
g3
tp1063
bssg196
(dp1064
g94
g56
(g57
(I0
tp1065
g59
tp1066
Rp1067
(I1
(I0
tp1068
g793
I00
g3
tp1069
bsg797
(lp1070
g3
asg799
g56
(g57
(I0
tp1071
g59
tp1072
Rp1073
(I1
(I0
tp1074
g793
I00
g3
tp1075
bsg96
g56
(g57
(I0
tp1076
g59
tp1077
Rp1078
(I1
(I0
tp1079
g793
I00
g3
tp1080
bsg810
g56
(g57
(I0
tp1081
g59
tp1082
Rp1083
(I1
(I0
tp1084
g793
I00
g3
tp1085
bsg98
g56
(g57
(I0
tp1086
g59
tp1087
Rp1088
(I1
(I0
tp1089
g793
I00
g3
tp1090
bsssb.